
telnet:     file format elf32-i386


Disassembly of section .init:

080494c4 <_init>:
 80494c4:	53                   	push   %ebx
 80494c5:	83 ec 08             	sub    $0x8,%esp
 80494c8:	e8 43 09 00 00       	call   8049e10 <__x86.get_pc_thunk.bx>
 80494cd:	81 c3 33 9b 01 00    	add    $0x19b33,%ebx
 80494d3:	8b 83 fc ff ff ff    	mov    -0x4(%ebx),%eax
 80494d9:	85 c0                	test   %eax,%eax
 80494db:	74 05                	je     80494e2 <_init+0x1e>
 80494dd:	e8 de 02 00 00       	call   80497c0 <__gmon_start__@plt>
 80494e2:	83 c4 08             	add    $0x8,%esp
 80494e5:	5b                   	pop    %ebx
 80494e6:	c3                   	ret    

Disassembly of section .plt:

080494f0 <setsockopt@plt-0x10>:
 80494f0:	ff 35 04 30 06 08    	pushl  0x8063004
 80494f6:	ff 25 08 30 06 08    	jmp    *0x8063008
 80494fc:	00 00                	add    %al,(%eax)
	...

08049500 <setsockopt@plt>:
 8049500:	ff 25 0c 30 06 08    	jmp    *0x806300c
 8049506:	68 00 00 00 00       	push   $0x0
 804950b:	e9 e0 ff ff ff       	jmp    80494f0 <_init+0x2c>

08049510 <__ctype_toupper_loc@plt>:
 8049510:	ff 25 10 30 06 08    	jmp    *0x8063010
 8049516:	68 08 00 00 00       	push   $0x8
 804951b:	e9 d0 ff ff ff       	jmp    80494f0 <_init+0x2c>

08049520 <getpwnam@plt>:
 8049520:	ff 25 14 30 06 08    	jmp    *0x8063014
 8049526:	68 10 00 00 00       	push   $0x10
 804952b:	e9 c0 ff ff ff       	jmp    80494f0 <_init+0x2c>

08049530 <strcmp@plt>:
 8049530:	ff 25 18 30 06 08    	jmp    *0x8063018
 8049536:	68 18 00 00 00       	push   $0x18
 804953b:	e9 b0 ff ff ff       	jmp    80494f0 <_init+0x2c>

08049540 <__vfprintf_chk@plt>:
 8049540:	ff 25 1c 30 06 08    	jmp    *0x806301c
 8049546:	68 20 00 00 00       	push   $0x20
 804954b:	e9 a0 ff ff ff       	jmp    80494f0 <_init+0x2c>

08049550 <read@plt>:
 8049550:	ff 25 20 30 06 08    	jmp    *0x8063020
 8049556:	68 28 00 00 00       	push   $0x28
 804955b:	e9 90 ff ff ff       	jmp    80494f0 <_init+0x2c>

08049560 <getpwuid@plt>:
 8049560:	ff 25 24 30 06 08    	jmp    *0x8063024
 8049566:	68 30 00 00 00       	push   $0x30
 804956b:	e9 80 ff ff ff       	jmp    80494f0 <_init+0x2c>

08049570 <printf@plt>:
 8049570:	ff 25 28 30 06 08    	jmp    *0x8063028
 8049576:	68 38 00 00 00       	push   $0x38
 804957b:	e9 70 ff ff ff       	jmp    80494f0 <_init+0x2c>

08049580 <longjmp@plt>:
 8049580:	ff 25 2c 30 06 08    	jmp    *0x806302c
 8049586:	68 40 00 00 00       	push   $0x40
 804958b:	e9 60 ff ff ff       	jmp    80494f0 <_init+0x2c>

08049590 <fflush@plt>:
 8049590:	ff 25 30 30 06 08    	jmp    *0x8063030
 8049596:	68 48 00 00 00       	push   $0x48
 804959b:	e9 50 ff ff ff       	jmp    80494f0 <_init+0x2c>

080495a0 <_exit@plt>:
 80495a0:	ff 25 34 30 06 08    	jmp    *0x8063034
 80495a6:	68 50 00 00 00       	push   $0x50
 80495ab:	e9 40 ff ff ff       	jmp    80494f0 <_init+0x2c>

080495b0 <sigprocmask@plt>:
 80495b0:	ff 25 38 30 06 08    	jmp    *0x8063038
 80495b6:	68 58 00 00 00       	push   $0x58
 80495bb:	e9 30 ff ff ff       	jmp    80494f0 <_init+0x2c>

080495c0 <memmove@plt>:
 80495c0:	ff 25 3c 30 06 08    	jmp    *0x806303c
 80495c6:	68 60 00 00 00       	push   $0x60
 80495cb:	e9 20 ff ff ff       	jmp    80494f0 <_init+0x2c>

080495d0 <_setjmp@plt>:
 80495d0:	ff 25 40 30 06 08    	jmp    *0x8063040
 80495d6:	68 68 00 00 00       	push   $0x68
 80495db:	e9 10 ff ff ff       	jmp    80494f0 <_init+0x2c>

080495e0 <free@plt>:
 80495e0:	ff 25 44 30 06 08    	jmp    *0x8063044
 80495e6:	68 70 00 00 00       	push   $0x70
 80495eb:	e9 00 ff ff ff       	jmp    80494f0 <_init+0x2c>

080495f0 <strdup@plt>:
 80495f0:	ff 25 48 30 06 08    	jmp    *0x8063048
 80495f6:	68 78 00 00 00       	push   $0x78
 80495fb:	e9 f0 fe ff ff       	jmp    80494f0 <_init+0x2c>

08049600 <memcpy@plt>:
 8049600:	ff 25 4c 30 06 08    	jmp    *0x806304c
 8049606:	68 80 00 00 00       	push   $0x80
 804960b:	e9 e0 fe ff ff       	jmp    80494f0 <_init+0x2c>

08049610 <ferror@plt>:
 8049610:	ff 25 50 30 06 08    	jmp    *0x8063050
 8049616:	68 88 00 00 00       	push   $0x88
 804961b:	e9 d0 fe ff ff       	jmp    80494f0 <_init+0x2c>

08049620 <fgets@plt>:
 8049620:	ff 25 54 30 06 08    	jmp    *0x8063054
 8049626:	68 90 00 00 00       	push   $0x90
 804962b:	e9 c0 fe ff ff       	jmp    80494f0 <_init+0x2c>

08049630 <fclose@plt>:
 8049630:	ff 25 58 30 06 08    	jmp    *0x8063058
 8049636:	68 98 00 00 00       	push   $0x98
 804963b:	e9 b0 fe ff ff       	jmp    80494f0 <_init+0x2c>

08049640 <signal@plt>:
 8049640:	ff 25 5c 30 06 08    	jmp    *0x806305c
 8049646:	68 a0 00 00 00       	push   $0xa0
 804964b:	e9 a0 fe ff ff       	jmp    80494f0 <_init+0x2c>

08049650 <sleep@plt>:
 8049650:	ff 25 60 30 06 08    	jmp    *0x8063060
 8049656:	68 a8 00 00 00       	push   $0xa8
 804965b:	e9 90 fe ff ff       	jmp    80494f0 <_init+0x2c>

08049660 <select@plt>:
 8049660:	ff 25 64 30 06 08    	jmp    *0x8063064
 8049666:	68 b0 00 00 00       	push   $0xb0
 804966b:	e9 80 fe ff ff       	jmp    80494f0 <_init+0x2c>

08049670 <__stack_chk_fail@plt>:
 8049670:	ff 25 68 30 06 08    	jmp    *0x8063068
 8049676:	68 b8 00 00 00       	push   $0xb8
 804967b:	e9 70 fe ff ff       	jmp    80494f0 <_init+0x2c>

08049680 <getuid@plt>:
 8049680:	ff 25 6c 30 06 08    	jmp    *0x806306c
 8049686:	68 c0 00 00 00       	push   $0xc0
 804968b:	e9 60 fe ff ff       	jmp    80494f0 <_init+0x2c>

08049690 <cfgetispeed@plt>:
 8049690:	ff 25 70 30 06 08    	jmp    *0x8063070
 8049696:	68 c8 00 00 00       	push   $0xc8
 804969b:	e9 50 fe ff ff       	jmp    80494f0 <_init+0x2c>

080496a0 <getnameinfo@plt>:
 80496a0:	ff 25 74 30 06 08    	jmp    *0x8063074
 80496a6:	68 d0 00 00 00       	push   $0xd0
 80496ab:	e9 40 fe ff ff       	jmp    80494f0 <_init+0x2c>

080496b0 <wait@plt>:
 80496b0:	ff 25 78 30 06 08    	jmp    *0x8063078
 80496b6:	68 d8 00 00 00       	push   $0xd8
 80496bb:	e9 30 fe ff ff       	jmp    80494f0 <_init+0x2c>

080496c0 <__fdelt_chk@plt>:
 80496c0:	ff 25 7c 30 06 08    	jmp    *0x806307c
 80496c6:	68 e0 00 00 00       	push   $0xe0
 80496cb:	e9 20 fe ff ff       	jmp    80494f0 <_init+0x2c>

080496d0 <_IO_putc@plt>:
 80496d0:	ff 25 80 30 06 08    	jmp    *0x8063080
 80496d6:	68 e8 00 00 00       	push   $0xe8
 80496db:	e9 10 fe ff ff       	jmp    80494f0 <_init+0x2c>

080496e0 <ioctl@plt>:
 80496e0:	ff 25 84 30 06 08    	jmp    *0x8063084
 80496e6:	68 f0 00 00 00       	push   $0xf0
 80496eb:	e9 00 fe ff ff       	jmp    80494f0 <_init+0x2c>

080496f0 <fopen64@plt>:
 80496f0:	ff 25 88 30 06 08    	jmp    *0x8063088
 80496f6:	68 f8 00 00 00       	push   $0xf8
 80496fb:	e9 f0 fd ff ff       	jmp    80494f0 <_init+0x2c>

08049700 <perror@plt>:
 8049700:	ff 25 8c 30 06 08    	jmp    *0x806308c
 8049706:	68 00 01 00 00       	push   $0x100
 804970b:	e9 e0 fd ff ff       	jmp    80494f0 <_init+0x2c>

08049710 <fwrite@plt>:
 8049710:	ff 25 90 30 06 08    	jmp    *0x8063090
 8049716:	68 08 01 00 00       	push   $0x108
 804971b:	e9 d0 fd ff ff       	jmp    80494f0 <_init+0x2c>

08049720 <strtoll@plt>:
 8049720:	ff 25 94 30 06 08    	jmp    *0x8063094
 8049726:	68 10 01 00 00       	push   $0x110
 804972b:	e9 c0 fd ff ff       	jmp    80494f0 <_init+0x2c>

08049730 <strcpy@plt>:
 8049730:	ff 25 98 30 06 08    	jmp    *0x8063098
 8049736:	68 18 01 00 00       	push   $0x118
 804973b:	e9 b0 fd ff ff       	jmp    80494f0 <_init+0x2c>

08049740 <tcsetattr@plt>:
 8049740:	ff 25 9c 30 06 08    	jmp    *0x806309c
 8049746:	68 20 01 00 00       	push   $0x120
 804974b:	e9 a0 fd ff ff       	jmp    80494f0 <_init+0x2c>

08049750 <gethostname@plt>:
 8049750:	ff 25 a0 30 06 08    	jmp    *0x80630a0
 8049756:	68 28 01 00 00       	push   $0x128
 804975b:	e9 90 fd ff ff       	jmp    80494f0 <_init+0x2c>

08049760 <error@plt>:
 8049760:	ff 25 a4 30 06 08    	jmp    *0x80630a4
 8049766:	68 30 01 00 00       	push   $0x130
 804976b:	e9 80 fd ff ff       	jmp    80494f0 <_init+0x2c>

08049770 <getenv@plt>:
 8049770:	ff 25 a8 30 06 08    	jmp    *0x80630a8
 8049776:	68 38 01 00 00       	push   $0x138
 804977b:	e9 70 fd ff ff       	jmp    80494f0 <_init+0x2c>

08049780 <realloc@plt>:
 8049780:	ff 25 ac 30 06 08    	jmp    *0x80630ac
 8049786:	68 40 01 00 00       	push   $0x140
 804978b:	e9 60 fd ff ff       	jmp    80494f0 <_init+0x2c>

08049790 <malloc@plt>:
 8049790:	ff 25 b0 30 06 08    	jmp    *0x80630b0
 8049796:	68 48 01 00 00       	push   $0x148
 804979b:	e9 50 fd ff ff       	jmp    80494f0 <_init+0x2c>

080497a0 <puts@plt>:
 80497a0:	ff 25 b4 30 06 08    	jmp    *0x80630b4
 80497a6:	68 50 01 00 00       	push   $0x150
 80497ab:	e9 40 fd ff ff       	jmp    80494f0 <_init+0x2c>

080497b0 <strerror@plt>:
 80497b0:	ff 25 b8 30 06 08    	jmp    *0x80630b8
 80497b6:	68 58 01 00 00       	push   $0x158
 80497bb:	e9 30 fd ff ff       	jmp    80494f0 <_init+0x2c>

080497c0 <__gmon_start__@plt>:
 80497c0:	ff 25 bc 30 06 08    	jmp    *0x80630bc
 80497c6:	68 60 01 00 00       	push   $0x160
 80497cb:	e9 20 fd ff ff       	jmp    80494f0 <_init+0x2c>

080497d0 <exit@plt>:
 80497d0:	ff 25 c0 30 06 08    	jmp    *0x80630c0
 80497d6:	68 68 01 00 00       	push   $0x168
 80497db:	e9 10 fd ff ff       	jmp    80494f0 <_init+0x2c>

080497e0 <kill@plt>:
 80497e0:	ff 25 c4 30 06 08    	jmp    *0x80630c4
 80497e6:	68 70 01 00 00       	push   $0x170
 80497eb:	e9 00 fd ff ff       	jmp    80494f0 <_init+0x2c>

080497f0 <feof@plt>:
 80497f0:	ff 25 c8 30 06 08    	jmp    *0x80630c8
 80497f6:	68 78 01 00 00       	push   $0x178
 80497fb:	e9 f0 fc ff ff       	jmp    80494f0 <_init+0x2c>

08049800 <fputs_unlocked@plt>:
 8049800:	ff 25 cc 30 06 08    	jmp    *0x80630cc
 8049806:	68 80 01 00 00       	push   $0x180
 804980b:	e9 e0 fc ff ff       	jmp    80494f0 <_init+0x2c>

08049810 <strchr@plt>:
 8049810:	ff 25 d0 30 06 08    	jmp    *0x80630d0
 8049816:	68 88 01 00 00       	push   $0x188
 804981b:	e9 d0 fc ff ff       	jmp    80494f0 <_init+0x2c>

08049820 <strlen@plt>:
 8049820:	ff 25 d4 30 06 08    	jmp    *0x80630d4
 8049826:	68 90 01 00 00       	push   $0x190
 804982b:	e9 c0 fc ff ff       	jmp    80494f0 <_init+0x2c>

08049830 <cfgetospeed@plt>:
 8049830:	ff 25 d8 30 06 08    	jmp    *0x80630d8
 8049836:	68 98 01 00 00       	push   $0x198
 804983b:	e9 b0 fc ff ff       	jmp    80494f0 <_init+0x2c>

08049840 <__libc_start_main@plt>:
 8049840:	ff 25 dc 30 06 08    	jmp    *0x80630dc
 8049846:	68 a0 01 00 00       	push   $0x1a0
 804984b:	e9 a0 fc ff ff       	jmp    80494f0 <_init+0x2c>

08049850 <fprintf@plt>:
 8049850:	ff 25 e0 30 06 08    	jmp    *0x80630e0
 8049856:	68 a8 01 00 00       	push   $0x1a8
 804985b:	e9 90 fc ff ff       	jmp    80494f0 <_init+0x2c>

08049860 <write@plt>:
 8049860:	ff 25 e4 30 06 08    	jmp    *0x80630e4
 8049866:	68 b0 01 00 00       	push   $0x1b0
 804986b:	e9 80 fc ff ff       	jmp    80494f0 <_init+0x2c>

08049870 <strcasecmp@plt>:
 8049870:	ff 25 e8 30 06 08    	jmp    *0x80630e8
 8049876:	68 b8 01 00 00       	push   $0x1b8
 804987b:	e9 70 fc ff ff       	jmp    80494f0 <_init+0x2c>

08049880 <sigaddset@plt>:
 8049880:	ff 25 ec 30 06 08    	jmp    *0x80630ec
 8049886:	68 c0 01 00 00       	push   $0x1c0
 804988b:	e9 60 fc ff ff       	jmp    80494f0 <_init+0x2c>

08049890 <__vasprintf_chk@plt>:
 8049890:	ff 25 f0 30 06 08    	jmp    *0x80630f0
 8049896:	68 c8 01 00 00       	push   $0x1c8
 804989b:	e9 50 fc ff ff       	jmp    80494f0 <_init+0x2c>

080498a0 <memset@plt>:
 80498a0:	ff 25 f4 30 06 08    	jmp    *0x80630f4
 80498a6:	68 d0 01 00 00       	push   $0x1d0
 80498ab:	e9 40 fc ff ff       	jmp    80494f0 <_init+0x2c>

080498b0 <funlockfile@plt>:
 80498b0:	ff 25 f8 30 06 08    	jmp    *0x80630f8
 80498b6:	68 d8 01 00 00       	push   $0x1d8
 80498bb:	e9 30 fc ff ff       	jmp    80494f0 <_init+0x2c>

080498c0 <strchrnul@plt>:
 80498c0:	ff 25 fc 30 06 08    	jmp    *0x80630fc
 80498c6:	68 e0 01 00 00       	push   $0x1e0
 80498cb:	e9 20 fc ff ff       	jmp    80494f0 <_init+0x2c>

080498d0 <__strdup@plt>:
 80498d0:	ff 25 00 31 06 08    	jmp    *0x8063100
 80498d6:	68 e8 01 00 00       	push   $0x1e8
 80498db:	e9 10 fc ff ff       	jmp    80494f0 <_init+0x2c>

080498e0 <putchar@plt>:
 80498e0:	ff 25 04 31 06 08    	jmp    *0x8063104
 80498e6:	68 f0 01 00 00       	push   $0x1f0
 80498eb:	e9 00 fc ff ff       	jmp    80494f0 <_init+0x2c>

080498f0 <__errno_location@plt>:
 80498f0:	ff 25 08 31 06 08    	jmp    *0x8063108
 80498f6:	68 f8 01 00 00       	push   $0x1f8
 80498fb:	e9 f0 fb ff ff       	jmp    80494f0 <_init+0x2c>

08049900 <memchr@plt>:
 8049900:	ff 25 0c 31 06 08    	jmp    *0x806310c
 8049906:	68 00 02 00 00       	push   $0x200
 804990b:	e9 e0 fb ff ff       	jmp    80494f0 <_init+0x2c>

08049910 <strncpy@plt>:
 8049910:	ff 25 10 31 06 08    	jmp    *0x8063110
 8049916:	68 08 02 00 00       	push   $0x208
 804991b:	e9 d0 fb ff ff       	jmp    80494f0 <_init+0x2c>

08049920 <fileno@plt>:
 8049920:	ff 25 14 31 06 08    	jmp    *0x8063114
 8049926:	68 10 02 00 00       	push   $0x210
 804992b:	e9 c0 fb ff ff       	jmp    80494f0 <_init+0x2c>

08049930 <strerror_r@plt>:
 8049930:	ff 25 18 31 06 08    	jmp    *0x8063118
 8049936:	68 18 02 00 00       	push   $0x218
 804993b:	e9 b0 fb ff ff       	jmp    80494f0 <_init+0x2c>

08049940 <gai_strerror@plt>:
 8049940:	ff 25 1c 31 06 08    	jmp    *0x806311c
 8049946:	68 20 02 00 00       	push   $0x220
 804994b:	e9 a0 fb ff ff       	jmp    80494f0 <_init+0x2c>

08049950 <__vsnprintf_chk@plt>:
 8049950:	ff 25 20 31 06 08    	jmp    *0x8063120
 8049956:	68 28 02 00 00       	push   $0x228
 804995b:	e9 90 fb ff ff       	jmp    80494f0 <_init+0x2c>

08049960 <execl@plt>:
 8049960:	ff 25 24 31 06 08    	jmp    *0x8063124
 8049966:	68 30 02 00 00       	push   $0x230
 804996b:	e9 80 fb ff ff       	jmp    80494f0 <_init+0x2c>

08049970 <strncasecmp@plt>:
 8049970:	ff 25 28 31 06 08    	jmp    *0x8063128
 8049976:	68 38 02 00 00       	push   $0x238
 804997b:	e9 70 fb ff ff       	jmp    80494f0 <_init+0x2c>

08049980 <vfork@plt>:
 8049980:	ff 25 2c 31 06 08    	jmp    *0x806312c
 8049986:	68 40 02 00 00       	push   $0x240
 804998b:	e9 60 fb ff ff       	jmp    80494f0 <_init+0x2c>

08049990 <fwrite_unlocked@plt>:
 8049990:	ff 25 30 31 06 08    	jmp    *0x8063130
 8049996:	68 48 02 00 00       	push   $0x248
 804999b:	e9 50 fb ff ff       	jmp    80494f0 <_init+0x2c>

080499a0 <__printf_chk@plt>:
 80499a0:	ff 25 34 31 06 08    	jmp    *0x8063134
 80499a6:	68 50 02 00 00       	push   $0x250
 80499ab:	e9 40 fb ff ff       	jmp    80494f0 <_init+0x2c>

080499b0 <mempcpy@plt>:
 80499b0:	ff 25 38 31 06 08    	jmp    *0x8063138
 80499b6:	68 58 02 00 00       	push   $0x258
 80499bb:	e9 30 fb ff ff       	jmp    80494f0 <_init+0x2c>

080499c0 <__longjmp_chk@plt>:
 80499c0:	ff 25 3c 31 06 08    	jmp    *0x806313c
 80499c6:	68 60 02 00 00       	push   $0x260
 80499cb:	e9 20 fb ff ff       	jmp    80494f0 <_init+0x2c>

080499d0 <strndup@plt>:
 80499d0:	ff 25 40 31 06 08    	jmp    *0x8063140
 80499d6:	68 68 02 00 00       	push   $0x268
 80499db:	e9 10 fb ff ff       	jmp    80494f0 <_init+0x2c>

080499e0 <sigemptyset@plt>:
 80499e0:	ff 25 44 31 06 08    	jmp    *0x8063144
 80499e6:	68 70 02 00 00       	push   $0x270
 80499eb:	e9 00 fb ff ff       	jmp    80494f0 <_init+0x2c>

080499f0 <freeaddrinfo@plt>:
 80499f0:	ff 25 48 31 06 08    	jmp    *0x8063148
 80499f6:	68 78 02 00 00       	push   $0x278
 80499fb:	e9 f0 fa ff ff       	jmp    80494f0 <_init+0x2c>

08049a00 <setlocale@plt>:
 8049a00:	ff 25 4c 31 06 08    	jmp    *0x806314c
 8049a06:	68 80 02 00 00       	push   $0x280
 8049a0b:	e9 e0 fa ff ff       	jmp    80494f0 <_init+0x2c>

08049a10 <strrchr@plt>:
 8049a10:	ff 25 50 31 06 08    	jmp    *0x8063150
 8049a16:	68 88 02 00 00       	push   $0x288
 8049a1b:	e9 d0 fa ff ff       	jmp    80494f0 <_init+0x2c>

08049a20 <__overflow@plt>:
 8049a20:	ff 25 54 31 06 08    	jmp    *0x8063154
 8049a26:	68 90 02 00 00       	push   $0x290
 8049a2b:	e9 c0 fa ff ff       	jmp    80494f0 <_init+0x2c>

08049a30 <fputc@plt>:
 8049a30:	ff 25 58 31 06 08    	jmp    *0x8063158
 8049a36:	68 98 02 00 00       	push   $0x298
 8049a3b:	e9 b0 fa ff ff       	jmp    80494f0 <_init+0x2c>

08049a40 <flockfile@plt>:
 8049a40:	ff 25 5c 31 06 08    	jmp    *0x806315c
 8049a46:	68 a0 02 00 00       	push   $0x2a0
 8049a4b:	e9 a0 fa ff ff       	jmp    80494f0 <_init+0x2c>

08049a50 <sprintf@plt>:
 8049a50:	ff 25 60 31 06 08    	jmp    *0x8063160
 8049a56:	68 a8 02 00 00       	push   $0x2a8
 8049a5b:	e9 90 fa ff ff       	jmp    80494f0 <_init+0x2c>

08049a60 <qsort@plt>:
 8049a60:	ff 25 64 31 06 08    	jmp    *0x8063164
 8049a66:	68 b0 02 00 00       	push   $0x2b0
 8049a6b:	e9 80 fa ff ff       	jmp    80494f0 <_init+0x2c>

08049a70 <socket@plt>:
 8049a70:	ff 25 68 31 06 08    	jmp    *0x8063168
 8049a76:	68 b8 02 00 00       	push   $0x2b8
 8049a7b:	e9 70 fa ff ff       	jmp    80494f0 <_init+0x2c>

08049a80 <getaddrinfo@plt>:
 8049a80:	ff 25 6c 31 06 08    	jmp    *0x806316c
 8049a86:	68 c0 02 00 00       	push   $0x2c0
 8049a8b:	e9 60 fa ff ff       	jmp    80494f0 <_init+0x2c>

08049a90 <__fprintf_chk@plt>:
 8049a90:	ff 25 70 31 06 08    	jmp    *0x8063170
 8049a96:	68 c8 02 00 00       	push   $0x2c8
 8049a9b:	e9 50 fa ff ff       	jmp    80494f0 <_init+0x2c>

08049aa0 <sigaction@plt>:
 8049aa0:	ff 25 74 31 06 08    	jmp    *0x8063174
 8049aa6:	68 d0 02 00 00       	push   $0x2d0
 8049aab:	e9 40 fa ff ff       	jmp    80494f0 <_init+0x2c>

08049ab0 <strncmp@plt>:
 8049ab0:	ff 25 78 31 06 08    	jmp    *0x8063178
 8049ab6:	68 d8 02 00 00       	push   $0x2d8
 8049abb:	e9 30 fa ff ff       	jmp    80494f0 <_init+0x2c>

08049ac0 <isatty@plt>:
 8049ac0:	ff 25 7c 31 06 08    	jmp    *0x806317c
 8049ac6:	68 e0 02 00 00       	push   $0x2e0
 8049acb:	e9 20 fa ff ff       	jmp    80494f0 <_init+0x2c>

08049ad0 <tcgetattr@plt>:
 8049ad0:	ff 25 80 31 06 08    	jmp    *0x8063180
 8049ad6:	68 e8 02 00 00       	push   $0x2e8
 8049adb:	e9 10 fa ff ff       	jmp    80494f0 <_init+0x2c>

08049ae0 <abort@plt>:
 8049ae0:	ff 25 84 31 06 08    	jmp    *0x8063184
 8049ae6:	68 f0 02 00 00       	push   $0x2f0
 8049aeb:	e9 00 fa ff ff       	jmp    80494f0 <_init+0x2c>

08049af0 <shutdown@plt>:
 8049af0:	ff 25 88 31 06 08    	jmp    *0x8063188
 8049af6:	68 f8 02 00 00       	push   $0x2f8
 8049afb:	e9 f0 f9 ff ff       	jmp    80494f0 <_init+0x2c>

08049b00 <strtol@plt>:
 8049b00:	ff 25 8c 31 06 08    	jmp    *0x806318c
 8049b06:	68 00 03 00 00       	push   $0x300
 8049b0b:	e9 e0 f9 ff ff       	jmp    80494f0 <_init+0x2c>

08049b10 <fputs@plt>:
 8049b10:	ff 25 90 31 06 08    	jmp    *0x8063190
 8049b16:	68 08 03 00 00       	push   $0x308
 8049b1b:	e9 d0 f9 ff ff       	jmp    80494f0 <_init+0x2c>

08049b20 <connect@plt>:
 8049b20:	ff 25 94 31 06 08    	jmp    *0x8063194
 8049b26:	68 10 03 00 00       	push   $0x310
 8049b2b:	e9 c0 f9 ff ff       	jmp    80494f0 <_init+0x2c>

08049b30 <recv@plt>:
 8049b30:	ff 25 98 31 06 08    	jmp    *0x8063198
 8049b36:	68 18 03 00 00       	push   $0x318
 8049b3b:	e9 b0 f9 ff ff       	jmp    80494f0 <_init+0x2c>

08049b40 <close@plt>:
 8049b40:	ff 25 9c 31 06 08    	jmp    *0x806319c
 8049b46:	68 20 03 00 00       	push   $0x320
 8049b4b:	e9 a0 f9 ff ff       	jmp    80494f0 <_init+0x2c>

08049b50 <__ctype_tolower_loc@plt>:
 8049b50:	ff 25 a0 31 06 08    	jmp    *0x80631a0
 8049b56:	68 28 03 00 00       	push   $0x328
 8049b5b:	e9 90 f9 ff ff       	jmp    80494f0 <_init+0x2c>

08049b60 <__assert_fail@plt>:
 8049b60:	ff 25 a4 31 06 08    	jmp    *0x80631a4
 8049b66:	68 30 03 00 00       	push   $0x330
 8049b6b:	e9 80 f9 ff ff       	jmp    80494f0 <_init+0x2c>

08049b70 <__ctype_b_loc@plt>:
 8049b70:	ff 25 a8 31 06 08    	jmp    *0x80631a8
 8049b76:	68 38 03 00 00       	push   $0x338
 8049b7b:	e9 70 f9 ff ff       	jmp    80494f0 <_init+0x2c>

08049b80 <send@plt>:
 8049b80:	ff 25 ac 31 06 08    	jmp    *0x80631ac
 8049b86:	68 40 03 00 00       	push   $0x340
 8049b8b:	e9 60 f9 ff ff       	jmp    80494f0 <_init+0x2c>

08049b90 <calloc@plt>:
 8049b90:	ff 25 b0 31 06 08    	jmp    *0x80631b0
 8049b96:	68 48 03 00 00       	push   $0x348
 8049b9b:	e9 50 f9 ff ff       	jmp    80494f0 <_init+0x2c>

08049ba0 <__sprintf_chk@plt>:
 8049ba0:	ff 25 b4 31 06 08    	jmp    *0x80631b4
 8049ba6:	68 50 03 00 00       	push   $0x350
 8049bab:	e9 40 f9 ff ff       	jmp    80494f0 <_init+0x2c>

Disassembly of section .text:

08049bb0 <main>:
 8049bb0:	55                   	push   %ebp
 8049bb1:	89 e5                	mov    %esp,%ebp
 8049bb3:	57                   	push   %edi
 8049bb4:	56                   	push   %esi
 8049bb5:	53                   	push   %ebx
 8049bb6:	83 e4 f0             	and    $0xfffffff0,%esp
 8049bb9:	83 ec 50             	sub    $0x50,%esp
 8049bbc:	8b 5d 0c             	mov    0xc(%ebp),%ebx
 8049bbf:	8b 03                	mov    (%ebx),%eax
 8049bc1:	89 04 24             	mov    %eax,(%esp)
 8049bc4:	e8 57 c6 00 00       	call   8056220 <set_program_name>
 8049bc9:	c7 44 24 04 be db 05 	movl   $0x805dbbe,0x4(%esp)
 8049bd0:	08 
 8049bd1:	c7 04 24 06 00 00 00 	movl   $0x6,(%esp)
 8049bd8:	e8 23 fe ff ff       	call   8049a00 <setlocale@plt>
 8049bdd:	e8 9e 3c 00 00       	call   804d880 <tninit>
 8049be2:	e8 39 45 00 00       	call   804e120 <TerminalSaveState>
 8049be7:	c7 44 24 04 2f 00 00 	movl   $0x2f,0x4(%esp)
 8049bee:	00 
 8049bef:	8b 03                	mov    (%ebx),%eax
 8049bf1:	89 04 24             	mov    %eax,(%esp)
 8049bf4:	e8 17 fe ff ff       	call   8049a10 <strrchr@plt>
 8049bf9:	85 c0                	test   %eax,%eax
 8049bfb:	a3 00 52 06 08       	mov    %eax,0x8065200
 8049c00:	0f 84 c0 01 00 00    	je     8049dc6 <main+0x216>
 8049c06:	83 c0 01             	add    $0x1,%eax
 8049c09:	a3 00 52 06 08       	mov    %eax,0x8065200
 8049c0e:	89 c6                	mov    %eax,%esi
 8049c10:	b9 04 00 00 00       	mov    $0x4,%ecx
 8049c15:	bf 2d d5 05 08       	mov    $0x805d52d,%edi
 8049c1a:	c7 05 a4 56 06 08 00 	movl   $0x0,0x80656a4
 8049c21:	00 00 00 
 8049c24:	f3 a6                	repz cmpsb %es:(%edi),%ds:(%esi)
 8049c26:	c7 44 24 04 34 44 06 	movl   $0x8064434,0x4(%esp)
 8049c2d:	08 
 8049c2e:	c7 04 24 4a d5 05 08 	movl   $0x805d54a,(%esp)
 8049c35:	c7 05 10 52 06 08 ff 	movl   $0xffffffff,0x8065210
 8049c3c:	ff ff ff 
 8049c3f:	c7 05 e4 1a 07 08 32 	movl   $0x805d532,0x8071ae4
 8049c46:	d5 05 08 
 8049c49:	0f 92 c2             	setb   %dl
 8049c4c:	0f 97 c0             	seta   %al
 8049c4f:	29 d0                	sub    %edx,%eax
 8049c51:	0f be c0             	movsbl %al,%eax
 8049c54:	83 f8 01             	cmp    $0x1,%eax
 8049c57:	19 c0                	sbb    %eax,%eax
 8049c59:	83 e0 7e             	and    $0x7e,%eax
 8049c5c:	a2 74 b9 06 08       	mov    %al,0x806b974
 8049c61:	e8 fa c4 00 00       	call   8056160 <argp_version_setup>
 8049c66:	8d 44 24 2c          	lea    0x2c(%esp),%eax
 8049c6a:	89 44 24 10          	mov    %eax,0x10(%esp)
 8049c6e:	8b 45 08             	mov    0x8(%ebp),%eax
 8049c71:	c7 44 24 14 00 00 00 	movl   $0x0,0x14(%esp)
 8049c78:	00 
 8049c79:	c7 44 24 0c 00 00 00 	movl   $0x0,0xc(%esp)
 8049c80:	00 
 8049c81:	89 5c 24 08          	mov    %ebx,0x8(%esp)
 8049c85:	89 44 24 04          	mov    %eax,0x4(%esp)
 8049c89:	c7 04 24 20 3f 06 08 	movl   $0x8063f20,(%esp)
 8049c90:	e8 8b b7 00 00       	call   8055420 <argp_parse>
 8049c95:	83 3d 10 52 06 08 ff 	cmpl   $0xffffffff,0x8065210
 8049c9c:	75 11                	jne    8049caf <main+0xff>
 8049c9e:	31 c0                	xor    %eax,%eax
 8049ca0:	80 3d 74 b9 06 08 00 	cmpb   $0x0,0x806b974
 8049ca7:	0f 95 c0             	setne  %al
 8049caa:	a3 10 52 06 08       	mov    %eax,0x8065210
 8049caf:	8b 74 24 2c          	mov    0x2c(%esp),%esi
 8049cb3:	8b 7d 08             	mov    0x8(%ebp),%edi
 8049cb6:	29 f7                	sub    %esi,%edi
 8049cb8:	0f 84 da 00 00 00    	je     8049d98 <main+0x1e8>
 8049cbe:	83 ff 02             	cmp    $0x2,%edi
 8049cc1:	7e 1c                	jle    8049cdf <main+0x12f>
 8049cc3:	c7 44 24 08 51 d5 05 	movl   $0x805d551,0x8(%esp)
 8049cca:	08 
 8049ccb:	c7 44 24 04 00 00 00 	movl   $0x0,0x4(%esp)
 8049cd2:	00 
 8049cd3:	c7 04 24 01 00 00 00 	movl   $0x1,(%esp)
 8049cda:	e8 81 fa ff ff       	call   8049760 <error@plt>
 8049cdf:	a1 00 52 06 08       	mov    0x8065200,%eax
 8049ce4:	89 44 24 30          	mov    %eax,0x30(%esp)
 8049ce8:	a1 a4 56 06 08       	mov    0x80656a4,%eax
 8049ced:	85 c0                	test   %eax,%eax
 8049cef:	0f 84 de 00 00 00    	je     8049dd3 <main+0x223>
 8049cf5:	89 44 24 38          	mov    %eax,0x38(%esp)
 8049cf9:	8d 44 24 3c          	lea    0x3c(%esp),%eax
 8049cfd:	c7 44 24 34 64 d5 05 	movl   $0x805d564,0x34(%esp)
 8049d04:	08 
 8049d05:	8b 15 e0 47 06 08    	mov    0x80647e0,%edx
 8049d0b:	83 fa 04             	cmp    $0x4,%edx
 8049d0e:	74 7d                	je     8049d8d <main+0x1dd>
 8049d10:	83 fa 06             	cmp    $0x6,%edx
 8049d13:	0f 84 c3 00 00 00    	je     8049ddc <main+0x22c>
 8049d19:	8d 14 b3             	lea    (%ebx,%esi,4),%edx
 8049d1c:	83 ff 01             	cmp    $0x1,%edi
 8049d1f:	8b 0a                	mov    (%edx),%ecx
 8049d21:	89 08                	mov    %ecx,(%eax)
 8049d23:	7e 5f                	jle    8049d84 <main+0x1d4>
 8049d25:	8b 52 04             	mov    0x4(%edx),%edx
 8049d28:	8d 58 08             	lea    0x8(%eax),%ebx
 8049d2b:	89 5c 24 1c          	mov    %ebx,0x1c(%esp)
 8049d2f:	89 50 04             	mov    %edx,0x4(%eax)
 8049d32:	8b 44 24 1c          	mov    0x1c(%esp),%eax
 8049d36:	c7 00 00 00 00 00    	movl   $0x0,(%eax)
 8049d3c:	c7 04 24 e0 b7 06 08 	movl   $0x806b7e0,(%esp)
 8049d43:	e8 88 f8 ff ff       	call   80495d0 <_setjmp@plt>
 8049d48:	85 c0                	test   %eax,%eax
 8049d4a:	74 0c                	je     8049d58 <main+0x1a8>
 8049d4c:	c7 04 24 00 00 00 00 	movl   $0x0,(%esp)
 8049d53:	e8 78 ae 00 00       	call   8054bd0 <Exit>
 8049d58:	8b 4c 24 1c          	mov    0x1c(%esp),%ecx
 8049d5c:	8d 44 24 30          	lea    0x30(%esp),%eax
 8049d60:	89 44 24 04          	mov    %eax,0x4(%esp)
 8049d64:	29 c1                	sub    %eax,%ecx
 8049d66:	89 c8                	mov    %ecx,%eax
 8049d68:	c1 f8 02             	sar    $0x2,%eax
 8049d6b:	89 04 24             	mov    %eax,(%esp)
 8049d6e:	e8 e0 29 00 00       	call   804c753 <tn>
 8049d73:	83 f8 01             	cmp    $0x1,%eax
 8049d76:	0f 95 c0             	setne  %al
 8049d79:	8d 65 f4             	lea    -0xc(%ebp),%esp
 8049d7c:	0f b6 c0             	movzbl %al,%eax
 8049d7f:	5b                   	pop    %ebx
 8049d80:	5e                   	pop    %esi
 8049d81:	5f                   	pop    %edi
 8049d82:	5d                   	pop    %ebp
 8049d83:	c3                   	ret    
 8049d84:	83 c0 04             	add    $0x4,%eax
 8049d87:	89 44 24 1c          	mov    %eax,0x1c(%esp)
 8049d8b:	eb a5                	jmp    8049d32 <main+0x182>
 8049d8d:	c7 00 67 d5 05 08    	movl   $0x805d567,(%eax)
 8049d93:	83 c0 04             	add    $0x4,%eax
 8049d96:	eb 81                	jmp    8049d19 <main+0x169>
 8049d98:	c7 04 24 e0 b7 06 08 	movl   $0x806b7e0,(%esp)
 8049d9f:	e8 2c f8 ff ff       	call   80495d0 <_setjmp@plt>
 8049da4:	8d 74 26 00          	lea    0x0(%esi,%eiz,1),%esi
 8049da8:	c7 44 24 08 00 00 00 	movl   $0x0,0x8(%esp)
 8049daf:	00 
 8049db0:	c7 44 24 04 00 00 00 	movl   $0x0,0x4(%esp)
 8049db7:	00 
 8049db8:	c7 04 24 01 00 00 00 	movl   $0x1,(%esp)
 8049dbf:	e8 47 33 00 00       	call   804d10b <command>
 8049dc4:	eb e2                	jmp    8049da8 <main+0x1f8>
 8049dc6:	8b 33                	mov    (%ebx),%esi
 8049dc8:	89 35 00 52 06 08    	mov    %esi,0x8065200
 8049dce:	e9 3d fe ff ff       	jmp    8049c10 <main+0x60>
 8049dd3:	8d 44 24 34          	lea    0x34(%esp),%eax
 8049dd7:	e9 29 ff ff ff       	jmp    8049d05 <main+0x155>
 8049ddc:	c7 00 6a d5 05 08    	movl   $0x805d56a,(%eax)
 8049de2:	83 c0 04             	add    $0x4,%eax
 8049de5:	e9 2f ff ff ff       	jmp    8049d19 <main+0x169>

08049dea <_start>:
 8049dea:	31 ed                	xor    %ebp,%ebp
 8049dec:	5e                   	pop    %esi
 8049ded:	89 e1                	mov    %esp,%ecx
 8049def:	83 e4 f0             	and    $0xfffffff0,%esp
 8049df2:	50                   	push   %eax
 8049df3:	54                   	push   %esp
 8049df4:	52                   	push   %edx
 8049df5:	68 10 b5 05 08       	push   $0x805b510
 8049dfa:	68 a0 b4 05 08       	push   $0x805b4a0
 8049dff:	51                   	push   %ecx
 8049e00:	56                   	push   %esi
 8049e01:	68 b0 9b 04 08       	push   $0x8049bb0
 8049e06:	e8 35 fa ff ff       	call   8049840 <__libc_start_main@plt>
 8049e0b:	f4                   	hlt    
 8049e0c:	66 90                	xchg   %ax,%ax
 8049e0e:	66 90                	xchg   %ax,%ax

08049e10 <__x86.get_pc_thunk.bx>:
 8049e10:	8b 1c 24             	mov    (%esp),%ebx
 8049e13:	c3                   	ret    
 8049e14:	66 90                	xchg   %ax,%ax
 8049e16:	66 90                	xchg   %ax,%ax
 8049e18:	66 90                	xchg   %ax,%ax
 8049e1a:	66 90                	xchg   %ax,%ax
 8049e1c:	66 90                	xchg   %ax,%ax
 8049e1e:	66 90                	xchg   %ax,%ax

08049e20 <deregister_tm_clones>:
 8049e20:	b8 7f 44 06 08       	mov    $0x806447f,%eax
 8049e25:	2d 7c 44 06 08       	sub    $0x806447c,%eax
 8049e2a:	83 f8 06             	cmp    $0x6,%eax
 8049e2d:	77 01                	ja     8049e30 <deregister_tm_clones+0x10>
 8049e2f:	c3                   	ret    
 8049e30:	b8 00 00 00 00       	mov    $0x0,%eax
 8049e35:	85 c0                	test   %eax,%eax
 8049e37:	74 f6                	je     8049e2f <deregister_tm_clones+0xf>
 8049e39:	55                   	push   %ebp
 8049e3a:	89 e5                	mov    %esp,%ebp
 8049e3c:	83 ec 18             	sub    $0x18,%esp
 8049e3f:	c7 04 24 7c 44 06 08 	movl   $0x806447c,(%esp)
 8049e46:	ff d0                	call   *%eax
 8049e48:	c9                   	leave  
 8049e49:	c3                   	ret    
 8049e4a:	8d b6 00 00 00 00    	lea    0x0(%esi),%esi

08049e50 <register_tm_clones>:
 8049e50:	b8 7c 44 06 08       	mov    $0x806447c,%eax
 8049e55:	2d 7c 44 06 08       	sub    $0x806447c,%eax
 8049e5a:	c1 f8 02             	sar    $0x2,%eax
 8049e5d:	89 c2                	mov    %eax,%edx
 8049e5f:	c1 ea 1f             	shr    $0x1f,%edx
 8049e62:	01 d0                	add    %edx,%eax
 8049e64:	d1 f8                	sar    %eax
 8049e66:	75 01                	jne    8049e69 <register_tm_clones+0x19>
 8049e68:	c3                   	ret    
 8049e69:	ba 00 00 00 00       	mov    $0x0,%edx
 8049e6e:	85 d2                	test   %edx,%edx
 8049e70:	74 f6                	je     8049e68 <register_tm_clones+0x18>
 8049e72:	55                   	push   %ebp
 8049e73:	89 e5                	mov    %esp,%ebp
 8049e75:	83 ec 18             	sub    $0x18,%esp
 8049e78:	89 44 24 04          	mov    %eax,0x4(%esp)
 8049e7c:	c7 04 24 7c 44 06 08 	movl   $0x806447c,(%esp)
 8049e83:	ff d2                	call   *%edx
 8049e85:	c9                   	leave  
 8049e86:	c3                   	ret    
 8049e87:	89 f6                	mov    %esi,%esi
 8049e89:	8d bc 27 00 00 00 00 	lea    0x0(%edi,%eiz,1),%edi

08049e90 <__do_global_dtors_aux>:
 8049e90:	80 3d e4 44 06 08 00 	cmpb   $0x0,0x80644e4
 8049e97:	75 13                	jne    8049eac <__do_global_dtors_aux+0x1c>
 8049e99:	55                   	push   %ebp
 8049e9a:	89 e5                	mov    %esp,%ebp
 8049e9c:	83 ec 08             	sub    $0x8,%esp
 8049e9f:	e8 7c ff ff ff       	call   8049e20 <deregister_tm_clones>
 8049ea4:	c6 05 e4 44 06 08 01 	movb   $0x1,0x80644e4
 8049eab:	c9                   	leave  
 8049eac:	f3 c3                	repz ret 
 8049eae:	66 90                	xchg   %ax,%ax

08049eb0 <frame_dummy>:
 8049eb0:	a1 10 2f 06 08       	mov    0x8062f10,%eax
 8049eb5:	85 c0                	test   %eax,%eax
 8049eb7:	74 1f                	je     8049ed8 <frame_dummy+0x28>
 8049eb9:	b8 00 00 00 00       	mov    $0x0,%eax
 8049ebe:	85 c0                	test   %eax,%eax
 8049ec0:	74 16                	je     8049ed8 <frame_dummy+0x28>
 8049ec2:	55                   	push   %ebp
 8049ec3:	89 e5                	mov    %esp,%ebp
 8049ec5:	83 ec 18             	sub    $0x18,%esp
 8049ec8:	c7 04 24 10 2f 06 08 	movl   $0x8062f10,(%esp)
 8049ecf:	ff d0                	call   *%eax
 8049ed1:	c9                   	leave  
 8049ed2:	e9 79 ff ff ff       	jmp    8049e50 <register_tm_clones>
 8049ed7:	90                   	nop
 8049ed8:	e9 73 ff ff ff       	jmp    8049e50 <register_tm_clones>

08049edd <makeargv>:
 8049edd:	55                   	push   %ebp
 8049ede:	89 e5                	mov    %esp,%ebp
 8049ee0:	57                   	push   %edi
 8049ee1:	56                   	push   %esi
 8049ee2:	53                   	push   %ebx
 8049ee3:	83 ec 1c             	sub    $0x1c,%esp
 8049ee6:	bf 80 47 06 08       	mov    $0x8064780,%edi
 8049eeb:	c7 05 60 47 06 08 00 	movl   $0x0,0x8064760
 8049ef2:	00 00 00 
 8049ef5:	bb 60 45 06 08       	mov    $0x8064560,%ebx
 8049efa:	0f b6 03             	movzbl (%ebx),%eax
 8049efd:	3c 21                	cmp    $0x21,%al
 8049eff:	75 34                	jne    8049f35 <makeargv+0x58>
 8049f01:	c7 44 24 04 60 45 06 	movl   $0x8064560,0x4(%esp)
 8049f08:	08 
 8049f09:	c7 04 24 60 46 06 08 	movl   $0x8064660,(%esp)
 8049f10:	e8 1b f8 ff ff       	call   8049730 <strcpy@plt>
 8049f15:	89 f8                	mov    %edi,%eax
 8049f17:	8d 78 04             	lea    0x4(%eax),%edi
 8049f1a:	c7 00 48 b5 05 08    	movl   $0x805b548,(%eax)
 8049f20:	a1 60 47 06 08       	mov    0x8064760,%eax
 8049f25:	83 c0 01             	add    $0x1,%eax
 8049f28:	a3 60 47 06 08       	mov    %eax,0x8064760
 8049f2d:	83 c3 01             	add    $0x1,%ebx
 8049f30:	e9 f1 00 00 00       	jmp    804a026 <makeargv+0x149>
 8049f35:	e9 ec 00 00 00       	jmp    804a026 <makeargv+0x149>
 8049f3a:	c7 45 e4 00 00 00 00 	movl   $0x0,-0x1c(%ebp)
 8049f41:	eb 06                	jmp    8049f49 <makeargv+0x6c>
 8049f43:	83 c3 01             	add    $0x1,%ebx
 8049f46:	0f b6 33             	movzbl (%ebx),%esi
 8049f49:	e8 22 fc ff ff       	call   8049b70 <__ctype_b_loc@plt>
 8049f4e:	8b 00                	mov    (%eax),%eax
 8049f50:	89 f1                	mov    %esi,%ecx
 8049f52:	0f be d1             	movsbl %cl,%edx
 8049f55:	01 d2                	add    %edx,%edx
 8049f57:	01 d0                	add    %edx,%eax
 8049f59:	0f b7 00             	movzwl (%eax),%eax
 8049f5c:	0f b7 c0             	movzwl %ax,%eax
 8049f5f:	25 00 20 00 00       	and    $0x2000,%eax
 8049f64:	85 c0                	test   %eax,%eax
 8049f66:	75 db                	jne    8049f43 <makeargv+0x66>
 8049f68:	89 f0                	mov    %esi,%eax
 8049f6a:	84 c0                	test   %al,%al
 8049f6c:	75 05                	jne    8049f73 <makeargv+0x96>
 8049f6e:	e9 c0 00 00 00       	jmp    804a033 <makeargv+0x156>
 8049f73:	89 f8                	mov    %edi,%eax
 8049f75:	8d 78 04             	lea    0x4(%eax),%edi
 8049f78:	89 18                	mov    %ebx,(%eax)
 8049f7a:	a1 60 47 06 08       	mov    0x8064760,%eax
 8049f7f:	83 c0 01             	add    $0x1,%eax
 8049f82:	a3 60 47 06 08       	mov    %eax,0x8064760
 8049f87:	89 5d e0             	mov    %ebx,-0x20(%ebp)
 8049f8a:	eb 7f                	jmp    804a00b <makeargv+0x12e>
 8049f8c:	83 7d e4 00          	cmpl   $0x0,-0x1c(%ebp)
 8049f90:	74 13                	je     8049fa5 <makeargv+0xc8>
 8049f92:	89 f0                	mov    %esi,%eax
 8049f94:	0f be c0             	movsbl %al,%eax
 8049f97:	3b 45 e4             	cmp    -0x1c(%ebp),%eax
 8049f9a:	75 5c                	jne    8049ff8 <makeargv+0x11b>
 8049f9c:	c7 45 e4 00 00 00 00 	movl   $0x0,-0x1c(%ebp)
 8049fa3:	eb 60                	jmp    804a005 <makeargv+0x128>
 8049fa5:	89 f0                	mov    %esi,%eax
 8049fa7:	3c 5c                	cmp    $0x5c,%al
 8049fa9:	75 0e                	jne    8049fb9 <makeargv+0xdc>
 8049fab:	83 c3 01             	add    $0x1,%ebx
 8049fae:	0f b6 33             	movzbl (%ebx),%esi
 8049fb1:	89 f0                	mov    %esi,%eax
 8049fb3:	84 c0                	test   %al,%al
 8049fb5:	75 41                	jne    8049ff8 <makeargv+0x11b>
 8049fb7:	eb 5c                	jmp    804a015 <makeargv+0x138>
 8049fb9:	89 f0                	mov    %esi,%eax
 8049fbb:	3c 22                	cmp    $0x22,%al
 8049fbd:	75 09                	jne    8049fc8 <makeargv+0xeb>
 8049fbf:	c7 45 e4 22 00 00 00 	movl   $0x22,-0x1c(%ebp)
 8049fc6:	eb 3d                	jmp    804a005 <makeargv+0x128>
 8049fc8:	89 f0                	mov    %esi,%eax
 8049fca:	3c 27                	cmp    $0x27,%al
 8049fcc:	75 09                	jne    8049fd7 <makeargv+0xfa>
 8049fce:	c7 45 e4 27 00 00 00 	movl   $0x27,-0x1c(%ebp)
 8049fd5:	eb 2e                	jmp    804a005 <makeargv+0x128>
 8049fd7:	e8 94 fb ff ff       	call   8049b70 <__ctype_b_loc@plt>
 8049fdc:	8b 10                	mov    (%eax),%edx
 8049fde:	89 f0                	mov    %esi,%eax
 8049fe0:	0f be c0             	movsbl %al,%eax
 8049fe3:	01 c0                	add    %eax,%eax
 8049fe5:	01 d0                	add    %edx,%eax
 8049fe7:	0f b7 00             	movzwl (%eax),%eax
 8049fea:	0f b7 c0             	movzwl %ax,%eax
 8049fed:	25 00 20 00 00       	and    $0x2000,%eax
 8049ff2:	85 c0                	test   %eax,%eax
 8049ff4:	74 02                	je     8049ff8 <makeargv+0x11b>
 8049ff6:	eb 1d                	jmp    804a015 <makeargv+0x138>
 8049ff8:	8b 45 e0             	mov    -0x20(%ebp),%eax
 8049ffb:	8d 48 01             	lea    0x1(%eax),%ecx
 8049ffe:	89 4d e0             	mov    %ecx,-0x20(%ebp)
 804a001:	89 f1                	mov    %esi,%ecx
 804a003:	88 08                	mov    %cl,(%eax)
 804a005:	83 c3 01             	add    $0x1,%ebx
 804a008:	0f b6 33             	movzbl (%ebx),%esi
 804a00b:	89 f0                	mov    %esi,%eax
 804a00d:	84 c0                	test   %al,%al
 804a00f:	0f 85 77 ff ff ff    	jne    8049f8c <makeargv+0xaf>
 804a015:	8b 45 e0             	mov    -0x20(%ebp),%eax
 804a018:	c6 00 00             	movb   $0x0,(%eax)
 804a01b:	89 f0                	mov    %esi,%eax
 804a01d:	84 c0                	test   %al,%al
 804a01f:	75 02                	jne    804a023 <makeargv+0x146>
 804a021:	eb 10                	jmp    804a033 <makeargv+0x156>
 804a023:	83 c3 01             	add    $0x1,%ebx
 804a026:	0f b6 33             	movzbl (%ebx),%esi
 804a029:	89 f0                	mov    %esi,%eax
 804a02b:	84 c0                	test   %al,%al
 804a02d:	0f 85 07 ff ff ff    	jne    8049f3a <makeargv+0x5d>
 804a033:	89 f8                	mov    %edi,%eax
 804a035:	8d 78 04             	lea    0x4(%eax),%edi
 804a038:	c7 00 00 00 00 00    	movl   $0x0,(%eax)
 804a03e:	83 c4 1c             	add    $0x1c,%esp
 804a041:	5b                   	pop    %ebx
 804a042:	5e                   	pop    %esi
 804a043:	5f                   	pop    %edi
 804a044:	5d                   	pop    %ebp
 804a045:	c3                   	ret    

0804a046 <special>:
 804a046:	55                   	push   %ebp
 804a047:	89 e5                	mov    %esp,%ebp
 804a049:	53                   	push   %ebx
 804a04a:	83 ec 10             	sub    $0x10,%esp
 804a04d:	8b 45 08             	mov    0x8(%ebp),%eax
 804a050:	0f b6 10             	movzbl (%eax),%edx
 804a053:	0f be d2             	movsbl %dl,%edx
 804a056:	83 fa 5e             	cmp    $0x5e,%edx
 804a059:	75 25                	jne    804a080 <special+0x3a>
 804a05b:	83 c0 01             	add    $0x1,%eax
 804a05e:	0f b6 00             	movzbl (%eax),%eax
 804a061:	88 45 fb             	mov    %al,-0x5(%ebp)
 804a064:	80 7d fb 3f          	cmpb   $0x3f,-0x5(%ebp)
 804a068:	75 0b                	jne    804a075 <special+0x2f>
 804a06a:	0f b6 45 fb          	movzbl -0x5(%ebp),%eax
 804a06e:	83 c8 40             	or     $0x40,%eax
 804a071:	89 c3                	mov    %eax,%ebx
 804a073:	eb 0f                	jmp    804a084 <special+0x3e>
 804a075:	0f b6 45 fb          	movzbl -0x5(%ebp),%eax
 804a079:	83 e0 1f             	and    $0x1f,%eax
 804a07c:	89 c3                	mov    %eax,%ebx
 804a07e:	eb 04                	jmp    804a084 <special+0x3e>
 804a080:	0f b6 18             	movzbl (%eax),%ebx
 804a083:	90                   	nop
 804a084:	0f be c3             	movsbl %bl,%eax
 804a087:	83 c4 10             	add    $0x10,%esp
 804a08a:	5b                   	pop    %ebx
 804a08b:	5d                   	pop    %ebp
 804a08c:	c3                   	ret    

0804a08d <control>:
 804a08d:	55                   	push   %ebp
 804a08e:	89 e5                	mov    %esp,%ebp
 804a090:	53                   	push   %ebx
 804a091:	8b 45 08             	mov    0x8(%ebp),%eax
 804a094:	0f b6 d8             	movzbl %al,%ebx
 804a097:	83 fb 7f             	cmp    $0x7f,%ebx
 804a09a:	75 07                	jne    804a0a3 <control+0x16>
 804a09c:	b8 4a b5 05 08       	mov    $0x805b54a,%eax
 804a0a1:	eb 78                	jmp    804a11b <control+0x8e>
 804a0a3:	84 c0                	test   %al,%al
 804a0a5:	75 07                	jne    804a0ae <control+0x21>
 804a0a7:	b8 4d b5 05 08       	mov    $0x805b54d,%eax
 804a0ac:	eb 6d                	jmp    804a11b <control+0x8e>
 804a0ae:	83 fb 7f             	cmp    $0x7f,%ebx
 804a0b1:	76 3a                	jbe    804a0ed <control+0x60>
 804a0b3:	c6 05 d4 47 06 08 5c 	movb   $0x5c,0x80647d4
 804a0ba:	89 c2                	mov    %eax,%edx
 804a0bc:	c0 ea 06             	shr    $0x6,%dl
 804a0bf:	83 c2 30             	add    $0x30,%edx
 804a0c2:	88 15 d5 47 06 08    	mov    %dl,0x80647d5
 804a0c8:	89 c2                	mov    %eax,%edx
 804a0ca:	c0 ea 03             	shr    $0x3,%dl
 804a0cd:	83 e2 07             	and    $0x7,%edx
 804a0d0:	83 c2 30             	add    $0x30,%edx
 804a0d3:	88 15 d6 47 06 08    	mov    %dl,0x80647d6
 804a0d9:	83 e0 07             	and    $0x7,%eax
 804a0dc:	83 c0 30             	add    $0x30,%eax
 804a0df:	a2 d7 47 06 08       	mov    %al,0x80647d7
 804a0e4:	c6 05 d8 47 06 08 00 	movb   $0x0,0x80647d8
 804a0eb:	eb 29                	jmp    804a116 <control+0x89>
 804a0ed:	83 fb 1f             	cmp    $0x1f,%ebx
 804a0f0:	76 0e                	jbe    804a100 <control+0x73>
 804a0f2:	a2 d4 47 06 08       	mov    %al,0x80647d4
 804a0f7:	c6 05 d5 47 06 08 00 	movb   $0x0,0x80647d5
 804a0fe:	eb 16                	jmp    804a116 <control+0x89>
 804a100:	c6 05 d4 47 06 08 5e 	movb   $0x5e,0x80647d4
 804a107:	83 c0 40             	add    $0x40,%eax
 804a10a:	a2 d5 47 06 08       	mov    %al,0x80647d5
 804a10f:	c6 05 d6 47 06 08 00 	movb   $0x0,0x80647d6
 804a116:	b8 d4 47 06 08       	mov    $0x80647d4,%eax
 804a11b:	5b                   	pop    %ebx
 804a11c:	5d                   	pop    %ebp
 804a11d:	c3                   	ret    

0804a11e <sendcmd>:
 804a11e:	55                   	push   %ebp
 804a11f:	89 e5                	mov    %esp,%ebp
 804a121:	56                   	push   %esi
 804a122:	53                   	push   %ebx
 804a123:	83 ec 40             	sub    $0x40,%esp
 804a126:	c7 45 ec 00 00 00 00 	movl   $0x0,-0x14(%ebp)
 804a12d:	c7 45 f0 00 00 00 00 	movl   $0x0,-0x10(%ebp)
 804a134:	83 7d 08 01          	cmpl   $0x1,0x8(%ebp)
 804a138:	7f 22                	jg     804a15c <sendcmd+0x3e>
 804a13a:	c7 04 24 88 b7 05 08 	movl   $0x805b788,(%esp)
 804a141:	e8 5a f6 ff ff       	call   80497a0 <puts@plt>
 804a146:	c7 04 24 b6 b7 05 08 	movl   $0x805b7b6,(%esp)
 804a14d:	e8 4e f6 ff ff       	call   80497a0 <puts@plt>
 804a152:	b8 00 00 00 00       	mov    $0x0,%eax
 804a157:	e9 30 03 00 00       	jmp    804a48c <sendcmd+0x36e>
 804a15c:	c7 45 e4 00 00 00 00 	movl   $0x0,-0x1c(%ebp)
 804a163:	c7 45 e8 01 00 00 00 	movl   $0x1,-0x18(%ebp)
 804a16a:	e9 39 01 00 00       	jmp    804a2a8 <sendcmd+0x18a>
 804a16f:	8b 45 e8             	mov    -0x18(%ebp),%eax
 804a172:	8d 14 85 00 00 00 00 	lea    0x0(,%eax,4),%edx
 804a179:	8b 45 0c             	mov    0xc(%ebp),%eax
 804a17c:	01 d0                	add    %edx,%eax
 804a17e:	8b 00                	mov    (%eax),%eax
 804a180:	c7 44 24 08 1c 00 00 	movl   $0x1c,0x8(%esp)
 804a187:	00 
 804a188:	c7 44 24 04 e0 31 06 	movl   $0x80631e0,0x4(%esp)
 804a18f:	08 
 804a190:	89 04 24             	mov    %eax,(%esp)
 804a193:	e8 78 ab 00 00       	call   8054d10 <genget>
 804a198:	89 45 f4             	mov    %eax,-0xc(%ebp)
 804a19b:	83 7d f4 00          	cmpl   $0x0,-0xc(%ebp)
 804a19f:	75 2b                	jne    804a1cc <sendcmd+0xae>
 804a1a1:	8b 45 e8             	mov    -0x18(%ebp),%eax
 804a1a4:	8d 14 85 00 00 00 00 	lea    0x0(,%eax,4),%edx
 804a1ab:	8b 45 0c             	mov    0xc(%ebp),%eax
 804a1ae:	01 d0                	add    %edx,%eax
 804a1b0:	8b 00                	mov    (%eax),%eax
 804a1b2:	89 44 24 04          	mov    %eax,0x4(%esp)
 804a1b6:	c7 04 24 c8 b7 05 08 	movl   $0x805b7c8,(%esp)
 804a1bd:	e8 ae f3 ff ff       	call   8049570 <printf@plt>
 804a1c2:	b8 00 00 00 00       	mov    $0x0,%eax
 804a1c7:	e9 c0 02 00 00       	jmp    804a48c <sendcmd+0x36e>
 804a1cc:	8b 45 f4             	mov    -0xc(%ebp),%eax
 804a1cf:	89 04 24             	mov    %eax,(%esp)
 804a1d2:	e8 b9 ab 00 00       	call   8054d90 <Ambiguous>
 804a1d7:	85 c0                	test   %eax,%eax
 804a1d9:	74 2b                	je     804a206 <sendcmd+0xe8>
 804a1db:	8b 45 e8             	mov    -0x18(%ebp),%eax
 804a1de:	8d 14 85 00 00 00 00 	lea    0x0(,%eax,4),%edx
 804a1e5:	8b 45 0c             	mov    0xc(%ebp),%eax
 804a1e8:	01 d0                	add    %edx,%eax
 804a1ea:	8b 00                	mov    (%eax),%eax
 804a1ec:	89 44 24 04          	mov    %eax,0x4(%esp)
 804a1f0:	c7 04 24 f8 b7 05 08 	movl   $0x805b7f8,(%esp)
 804a1f7:	e8 74 f3 ff ff       	call   8049570 <printf@plt>
 804a1fc:	b8 00 00 00 00       	mov    $0x0,%eax
 804a201:	e9 86 02 00 00       	jmp    804a48c <sendcmd+0x36e>
 804a206:	8b 45 f4             	mov    -0xc(%ebp),%eax
 804a209:	8b 50 0c             	mov    0xc(%eax),%edx
 804a20c:	8b 45 e8             	mov    -0x18(%ebp),%eax
 804a20f:	01 d0                	add    %edx,%eax
 804a211:	3b 45 08             	cmp    0x8(%ebp),%eax
 804a214:	7c 57                	jl     804a26d <sendcmd+0x14f>
 804a216:	8b 45 f4             	mov    -0xc(%ebp),%eax
 804a219:	8b 30                	mov    (%eax),%esi
 804a21b:	8b 45 f4             	mov    -0xc(%ebp),%eax
 804a21e:	8b 18                	mov    (%eax),%ebx
 804a220:	8b 45 f4             	mov    -0xc(%ebp),%eax
 804a223:	8b 40 0c             	mov    0xc(%eax),%eax
 804a226:	83 f8 01             	cmp    $0x1,%eax
 804a229:	75 07                	jne    804a232 <sendcmd+0x114>
 804a22b:	b8 29 b8 05 08       	mov    $0x805b829,%eax
 804a230:	eb 05                	jmp    804a237 <sendcmd+0x119>
 804a232:	b8 2a b8 05 08       	mov    $0x805b82a,%eax
 804a237:	8b 55 f4             	mov    -0xc(%ebp),%edx
 804a23a:	8b 4a 0c             	mov    0xc(%edx),%ecx
 804a23d:	8b 15 a4 44 06 08    	mov    0x80644a4,%edx
 804a243:	89 74 24 14          	mov    %esi,0x14(%esp)
 804a247:	89 5c 24 10          	mov    %ebx,0x10(%esp)
 804a24b:	89 44 24 0c          	mov    %eax,0xc(%esp)
 804a24f:	89 4c 24 08          	mov    %ecx,0x8(%esp)
 804a253:	c7 44 24 04 2c b8 05 	movl   $0x805b82c,0x4(%esp)
 804a25a:	08 
 804a25b:	89 14 24             	mov    %edx,(%esp)
 804a25e:	e8 ed f5 ff ff       	call   8049850 <fprintf@plt>
 804a263:	b8 00 00 00 00       	mov    $0x0,%eax
 804a268:	e9 1f 02 00 00       	jmp    804a48c <sendcmd+0x36e>
 804a26d:	8b 45 f4             	mov    -0xc(%ebp),%eax
 804a270:	8b 40 14             	mov    0x14(%eax),%eax
 804a273:	01 45 e4             	add    %eax,-0x1c(%ebp)
 804a276:	8b 45 f4             	mov    -0xc(%ebp),%eax
 804a279:	8b 40 10             	mov    0x10(%eax),%eax
 804a27c:	3d 6c a7 04 08       	cmp    $0x804a76c,%eax
 804a281:	75 0f                	jne    804a292 <sendcmd+0x174>
 804a283:	e8 e4 04 00 00       	call   804a76c <send_help>
 804a288:	b8 00 00 00 00       	mov    $0x0,%eax
 804a28d:	e9 fa 01 00 00       	jmp    804a48c <sendcmd+0x36e>
 804a292:	8b 45 f4             	mov    -0xc(%ebp),%eax
 804a295:	8b 40 0c             	mov    0xc(%eax),%eax
 804a298:	01 45 e8             	add    %eax,-0x18(%ebp)
 804a29b:	8b 45 f4             	mov    -0xc(%ebp),%eax
 804a29e:	8b 40 08             	mov    0x8(%eax),%eax
 804a2a1:	01 45 f0             	add    %eax,-0x10(%ebp)
 804a2a4:	83 45 e8 01          	addl   $0x1,-0x18(%ebp)
 804a2a8:	8b 45 e8             	mov    -0x18(%ebp),%eax
 804a2ab:	3b 45 08             	cmp    0x8(%ebp),%eax
 804a2ae:	0f 8c bb fe ff ff    	jl     804a16f <sendcmd+0x51>
 804a2b4:	a1 c4 b7 06 08       	mov    0x806b7c4,%eax
 804a2b9:	85 c0                	test   %eax,%eax
 804a2bb:	75 28                	jne    804a2e5 <sendcmd+0x1c7>
 804a2bd:	83 7d f0 00          	cmpl   $0x0,-0x10(%ebp)
 804a2c1:	74 22                	je     804a2e5 <sendcmd+0x1c7>
 804a2c3:	c7 04 24 6d b8 05 08 	movl   $0x805b86d,(%esp)
 804a2ca:	e8 d1 f4 ff ff       	call   80497a0 <puts@plt>
 804a2cf:	c7 04 24 b6 b7 05 08 	movl   $0x805b7b6,(%esp)
 804a2d6:	e8 c5 f4 ff ff       	call   80497a0 <puts@plt>
 804a2db:	b8 00 00 00 00       	mov    $0x0,%eax
 804a2e0:	e9 a7 01 00 00       	jmp    804a48c <sendcmd+0x36e>
 804a2e5:	c7 04 24 c0 56 06 08 	movl   $0x80656c0,(%esp)
 804a2ec:	e8 cf 39 00 00       	call   804dcc0 <ring_empty_count>
 804a2f1:	3b 45 e4             	cmp    -0x1c(%ebp),%eax
 804a2f4:	7d 3a                	jge    804a330 <sendcmd+0x212>
 804a2f6:	c7 04 24 8c b8 05 08 	movl   $0x805b88c,(%esp)
 804a2fd:	e8 9e f4 ff ff       	call   80497a0 <puts@plt>
 804a302:	c7 04 24 c4 b8 05 08 	movl   $0x805b8c4,(%esp)
 804a309:	e8 92 f4 ff ff       	call   80497a0 <puts@plt>
 804a30e:	c7 04 24 f4 b8 05 08 	movl   $0x805b8f4,(%esp)
 804a315:	e8 86 f4 ff ff       	call   80497a0 <puts@plt>
 804a31a:	c7 04 24 2b b9 05 08 	movl   $0x805b92b,(%esp)
 804a321:	e8 7a f4 ff ff       	call   80497a0 <puts@plt>
 804a326:	b8 00 00 00 00       	mov    $0x0,%eax
 804a32b:	e9 5c 01 00 00       	jmp    804a48c <sendcmd+0x36e>
 804a330:	c7 45 e4 00 00 00 00 	movl   $0x0,-0x1c(%ebp)
 804a337:	c7 45 e8 01 00 00 00 	movl   $0x1,-0x18(%ebp)
 804a33e:	e9 31 01 00 00       	jmp    804a474 <sendcmd+0x356>
 804a343:	8b 45 e8             	mov    -0x18(%ebp),%eax
 804a346:	8d 14 85 00 00 00 00 	lea    0x0(,%eax,4),%edx
 804a34d:	8b 45 0c             	mov    0xc(%ebp),%eax
 804a350:	01 d0                	add    %edx,%eax
 804a352:	8b 00                	mov    (%eax),%eax
 804a354:	c7 44 24 08 1c 00 00 	movl   $0x1c,0x8(%esp)
 804a35b:	00 
 804a35c:	c7 44 24 04 e0 31 06 	movl   $0x80631e0,0x4(%esp)
 804a363:	08 
 804a364:	89 04 24             	mov    %eax,(%esp)
 804a367:	e8 a4 a9 00 00       	call   8054d10 <genget>
 804a36c:	89 45 f4             	mov    %eax,-0xc(%ebp)
 804a36f:	83 7d f4 00          	cmpl   $0x0,-0xc(%ebp)
 804a373:	75 2a                	jne    804a39f <sendcmd+0x281>
 804a375:	a1 a4 44 06 08       	mov    0x80644a4,%eax
 804a37a:	89 44 24 0c          	mov    %eax,0xc(%esp)
 804a37e:	c7 44 24 08 2c 00 00 	movl   $0x2c,0x8(%esp)
 804a385:	00 
 804a386:	c7 44 24 04 01 00 00 	movl   $0x1,0x4(%esp)
 804a38d:	00 
 804a38e:	c7 04 24 48 b9 05 08 	movl   $0x805b948,(%esp)
 804a395:	e8 76 f3 ff ff       	call   8049710 <fwrite@plt>
 804a39a:	e8 2a 1a 00 00       	call   804bdc9 <quit>
 804a39f:	8b 45 f4             	mov    -0xc(%ebp),%eax
 804a3a2:	8b 40 10             	mov    0x10(%eax),%eax
 804a3a5:	85 c0                	test   %eax,%eax
 804a3a7:	74 6c                	je     804a415 <sendcmd+0x2f7>
 804a3a9:	83 45 e4 01          	addl   $0x1,-0x1c(%ebp)
 804a3ad:	8b 45 f4             	mov    -0xc(%ebp),%eax
 804a3b0:	8b 48 10             	mov    0x10(%eax),%ecx
 804a3b3:	8b 45 f4             	mov    -0xc(%ebp),%eax
 804a3b6:	8b 40 0c             	mov    0xc(%eax),%eax
 804a3b9:	83 f8 01             	cmp    $0x1,%eax
 804a3bc:	7e 16                	jle    804a3d4 <sendcmd+0x2b6>
 804a3be:	8b 45 e8             	mov    -0x18(%ebp),%eax
 804a3c1:	83 c0 02             	add    $0x2,%eax
 804a3c4:	8d 14 85 00 00 00 00 	lea    0x0(,%eax,4),%edx
 804a3cb:	8b 45 0c             	mov    0xc(%ebp),%eax
 804a3ce:	01 d0                	add    %edx,%eax
 804a3d0:	8b 10                	mov    (%eax),%edx
 804a3d2:	eb 05                	jmp    804a3d9 <sendcmd+0x2bb>
 804a3d4:	ba 00 00 00 00       	mov    $0x0,%edx
 804a3d9:	8b 45 f4             	mov    -0xc(%ebp),%eax
 804a3dc:	8b 40 0c             	mov    0xc(%eax),%eax
 804a3df:	85 c0                	test   %eax,%eax
 804a3e1:	7e 16                	jle    804a3f9 <sendcmd+0x2db>
 804a3e3:	8b 45 e8             	mov    -0x18(%ebp),%eax
 804a3e6:	83 c0 01             	add    $0x1,%eax
 804a3e9:	8d 1c 85 00 00 00 00 	lea    0x0(,%eax,4),%ebx
 804a3f0:	8b 45 0c             	mov    0xc(%ebp),%eax
 804a3f3:	01 d8                	add    %ebx,%eax
 804a3f5:	8b 00                	mov    (%eax),%eax
 804a3f7:	eb 05                	jmp    804a3fe <sendcmd+0x2e0>
 804a3f9:	b8 00 00 00 00       	mov    $0x0,%eax
 804a3fe:	89 54 24 04          	mov    %edx,0x4(%esp)
 804a402:	89 04 24             	mov    %eax,(%esp)
 804a405:	ff d1                	call   *%ecx
 804a407:	01 45 ec             	add    %eax,-0x14(%ebp)
 804a40a:	8b 45 f4             	mov    -0xc(%ebp),%eax
 804a40d:	8b 40 0c             	mov    0xc(%eax),%eax
 804a410:	01 45 e8             	add    %eax,-0x18(%ebp)
 804a413:	eb 5b                	jmp    804a470 <sendcmd+0x352>
 804a415:	a1 c4 56 06 08       	mov    0x80656c4,%eax
 804a41a:	c6 00 ff             	movb   $0xff,(%eax)
 804a41d:	c7 44 24 04 01 00 00 	movl   $0x1,0x4(%esp)
 804a424:	00 
 804a425:	c7 04 24 c0 56 06 08 	movl   $0x80656c0,(%esp)
 804a42c:	e8 df 37 00 00       	call   804dc10 <ring_supplied>
 804a431:	a1 c4 56 06 08       	mov    0x80656c4,%eax
 804a436:	8b 55 f4             	mov    -0xc(%ebp),%edx
 804a439:	8b 52 18             	mov    0x18(%edx),%edx
 804a43c:	88 10                	mov    %dl,(%eax)
 804a43e:	c7 44 24 04 01 00 00 	movl   $0x1,0x4(%esp)
 804a445:	00 
 804a446:	c7 04 24 c0 56 06 08 	movl   $0x80656c0,(%esp)
 804a44d:	e8 be 37 00 00       	call   804dc10 <ring_supplied>
 804a452:	8b 45 f4             	mov    -0xc(%ebp),%eax
 804a455:	8b 40 18             	mov    0x18(%eax),%eax
 804a458:	89 44 24 08          	mov    %eax,0x8(%esp)
 804a45c:	c7 44 24 04 ff 00 00 	movl   $0xff,0x4(%esp)
 804a463:	00 
 804a464:	c7 04 24 75 b9 05 08 	movl   $0x805b975,(%esp)
 804a46b:	e8 80 8a 00 00       	call   8052ef0 <printoption>
 804a470:	83 45 e8 01          	addl   $0x1,-0x18(%ebp)
 804a474:	8b 45 e8             	mov    -0x18(%ebp),%eax
 804a477:	3b 45 08             	cmp    0x8(%ebp),%eax
 804a47a:	0f 8c c3 fe ff ff    	jl     804a343 <sendcmd+0x225>
 804a480:	8b 45 e4             	mov    -0x1c(%ebp),%eax
 804a483:	3b 45 ec             	cmp    -0x14(%ebp),%eax
 804a486:	0f 94 c0             	sete   %al
 804a489:	0f b6 c0             	movzbl %al,%eax
 804a48c:	83 c4 40             	add    $0x40,%esp
 804a48f:	5b                   	pop    %ebx
 804a490:	5e                   	pop    %esi
 804a491:	5d                   	pop    %ebp
 804a492:	c3                   	ret    

0804a493 <send_esc>:
 804a493:	55                   	push   %ebp
 804a494:	89 e5                	mov    %esp,%ebp
 804a496:	83 ec 18             	sub    $0x18,%esp
 804a499:	a1 c4 56 06 08       	mov    0x80656c4,%eax
 804a49e:	0f b6 15 70 ba 06 08 	movzbl 0x806ba70,%edx
 804a4a5:	88 10                	mov    %dl,(%eax)
 804a4a7:	c7 44 24 04 01 00 00 	movl   $0x1,0x4(%esp)
 804a4ae:	00 
 804a4af:	c7 04 24 c0 56 06 08 	movl   $0x80656c0,(%esp)
 804a4b6:	e8 55 37 00 00       	call   804dc10 <ring_supplied>
 804a4bb:	b8 01 00 00 00       	mov    $0x1,%eax
 804a4c0:	c9                   	leave  
 804a4c1:	c3                   	ret    

0804a4c2 <send_tncmd>:
 804a4c2:	55                   	push   %ebp
 804a4c3:	89 e5                	mov    %esp,%ebp
 804a4c5:	56                   	push   %esi
 804a4c6:	53                   	push   %ebx
 804a4c7:	83 ec 20             	sub    $0x20,%esp
 804a4ca:	bb 00 00 00 00       	mov    $0x0,%ebx
 804a4cf:	c7 44 24 04 6e b7 05 	movl   $0x805b76e,0x4(%esp)
 804a4d6:	08 
 804a4d7:	8b 45 10             	mov    0x10(%ebp),%eax
 804a4da:	89 04 24             	mov    %eax,(%esp)
 804a4dd:	e8 4e a7 00 00       	call   8054c30 <isprefix>
 804a4e2:	85 c0                	test   %eax,%eax
 804a4e4:	75 1b                	jne    804a501 <send_tncmd+0x3f>
 804a4e6:	c7 44 24 04 57 b7 05 	movl   $0x805b757,0x4(%esp)
 804a4ed:	08 
 804a4ee:	8b 45 10             	mov    0x10(%ebp),%eax
 804a4f1:	89 04 24             	mov    %eax,(%esp)
 804a4f4:	e8 37 a7 00 00       	call   8054c30 <isprefix>
 804a4f9:	85 c0                	test   %eax,%eax
 804a4fb:	0f 84 9e 00 00 00    	je     804a59f <send_tncmd+0xdd>
 804a501:	8b 45 0c             	mov    0xc(%ebp),%eax
 804a504:	89 44 24 04          	mov    %eax,0x4(%esp)
 804a508:	c7 04 24 7c b9 05 08 	movl   $0x805b97c,(%esp)
 804a50f:	e8 5c f0 ff ff       	call   8049570 <printf@plt>
 804a514:	c7 04 24 9b b9 05 08 	movl   $0x805b99b,(%esp)
 804a51b:	e8 80 f2 ff ff       	call   80497a0 <puts@plt>
 804a520:	c7 04 24 b9 b9 05 08 	movl   $0x805b9b9,(%esp)
 804a527:	e8 44 f0 ff ff       	call   8049570 <printf@plt>
 804a52c:	bb 08 00 00 00       	mov    $0x8,%ebx
 804a531:	c7 45 f4 20 43 06 08 	movl   $0x8064320,-0xc(%ebp)
 804a538:	eb 46                	jmp    804a580 <send_tncmd+0xbe>
 804a53a:	8b 45 f4             	mov    -0xc(%ebp),%eax
 804a53d:	8b 00                	mov    (%eax),%eax
 804a53f:	89 04 24             	mov    %eax,(%esp)
 804a542:	e8 d9 f2 ff ff       	call   8049820 <strlen@plt>
 804a547:	83 c0 03             	add    $0x3,%eax
 804a54a:	89 c6                	mov    %eax,%esi
 804a54c:	8d 04 33             	lea    (%ebx,%esi,1),%eax
 804a54f:	83 f8 41             	cmp    $0x41,%eax
 804a552:	7e 11                	jle    804a565 <send_tncmd+0xa3>
 804a554:	c7 04 24 ce b9 05 08 	movl   $0x805b9ce,(%esp)
 804a55b:	e8 10 f0 ff ff       	call   8049570 <printf@plt>
 804a560:	bb 08 00 00 00       	mov    $0x8,%ebx
 804a565:	8b 45 f4             	mov    -0xc(%ebp),%eax
 804a568:	8b 00                	mov    (%eax),%eax
 804a56a:	89 44 24 04          	mov    %eax,0x4(%esp)
 804a56e:	c7 04 24 d1 b9 05 08 	movl   $0x805b9d1,(%esp)
 804a575:	e8 f6 ef ff ff       	call   8049570 <printf@plt>
 804a57a:	01 f3                	add    %esi,%ebx
 804a57c:	83 45 f4 04          	addl   $0x4,-0xc(%ebp)
 804a580:	8b 45 f4             	mov    -0xc(%ebp),%eax
 804a583:	8b 00                	mov    (%eax),%eax
 804a585:	85 c0                	test   %eax,%eax
 804a587:	75 b1                	jne    804a53a <send_tncmd+0x78>
 804a589:	c7 04 24 0a 00 00 00 	movl   $0xa,(%esp)
 804a590:	e8 4b f3 ff ff       	call   80498e0 <putchar@plt>
 804a595:	b8 00 00 00 00       	mov    $0x0,%eax
 804a59a:	e9 3a 01 00 00       	jmp    804a6d9 <send_tncmd+0x217>
 804a59f:	c7 44 24 08 04 00 00 	movl   $0x4,0x8(%esp)
 804a5a6:	00 
 804a5a7:	c7 44 24 04 20 43 06 	movl   $0x8064320,0x4(%esp)
 804a5ae:	08 
 804a5af:	8b 45 10             	mov    0x10(%ebp),%eax
 804a5b2:	89 04 24             	mov    %eax,(%esp)
 804a5b5:	e8 56 a7 00 00       	call   8054d10 <genget>
 804a5ba:	89 45 f4             	mov    %eax,-0xc(%ebp)
 804a5bd:	8b 45 f4             	mov    -0xc(%ebp),%eax
 804a5c0:	89 04 24             	mov    %eax,(%esp)
 804a5c3:	e8 c8 a7 00 00       	call   8054d90 <Ambiguous>
 804a5c8:	85 c0                	test   %eax,%eax
 804a5ca:	74 2d                	je     804a5f9 <send_tncmd+0x137>
 804a5cc:	a1 a4 44 06 08       	mov    0x80644a4,%eax
 804a5d1:	8b 55 0c             	mov    0xc(%ebp),%edx
 804a5d4:	89 54 24 0c          	mov    %edx,0xc(%esp)
 804a5d8:	8b 55 10             	mov    0x10(%ebp),%edx
 804a5db:	89 54 24 08          	mov    %edx,0x8(%esp)
 804a5df:	c7 44 24 04 d8 b9 05 	movl   $0x805b9d8,0x4(%esp)
 804a5e6:	08 
 804a5e7:	89 04 24             	mov    %eax,(%esp)
 804a5ea:	e8 61 f2 ff ff       	call   8049850 <fprintf@plt>
 804a5ef:	b8 00 00 00 00       	mov    $0x0,%eax
 804a5f4:	e9 e0 00 00 00       	jmp    804a6d9 <send_tncmd+0x217>
 804a5f9:	83 7d f4 00          	cmpl   $0x0,-0xc(%ebp)
 804a5fd:	74 16                	je     804a615 <send_tncmd+0x153>
 804a5ff:	8b 55 f4             	mov    -0xc(%ebp),%edx
 804a602:	b8 20 43 06 08       	mov    $0x8064320,%eax
 804a607:	29 c2                	sub    %eax,%edx
 804a609:	89 d0                	mov    %edx,%eax
 804a60b:	c1 f8 02             	sar    $0x2,%eax
 804a60e:	89 c3                	mov    %eax,%ebx
 804a610:	e9 93 00 00 00       	jmp    804a6a8 <send_tncmd+0x1e6>
 804a615:	8b 75 10             	mov    0x10(%ebp),%esi
 804a618:	eb 19                	jmp    804a633 <send_tncmd+0x171>
 804a61a:	89 d8                	mov    %ebx,%eax
 804a61c:	c1 e0 02             	shl    $0x2,%eax
 804a61f:	01 d8                	add    %ebx,%eax
 804a621:	01 c0                	add    %eax,%eax
 804a623:	89 c3                	mov    %eax,%ebx
 804a625:	0f b6 06             	movzbl (%esi),%eax
 804a628:	0f be c0             	movsbl %al,%eax
 804a62b:	83 e8 30             	sub    $0x30,%eax
 804a62e:	01 c3                	add    %eax,%ebx
 804a630:	83 c6 01             	add    $0x1,%esi
 804a633:	0f b6 06             	movzbl (%esi),%eax
 804a636:	3c 2f                	cmp    $0x2f,%al
 804a638:	7e 07                	jle    804a641 <send_tncmd+0x17f>
 804a63a:	0f b6 06             	movzbl (%esi),%eax
 804a63d:	3c 39                	cmp    $0x39,%al
 804a63f:	7e d9                	jle    804a61a <send_tncmd+0x158>
 804a641:	0f b6 06             	movzbl (%esi),%eax
 804a644:	84 c0                	test   %al,%al
 804a646:	74 2a                	je     804a672 <send_tncmd+0x1b0>
 804a648:	a1 a4 44 06 08       	mov    0x80644a4,%eax
 804a64d:	8b 55 0c             	mov    0xc(%ebp),%edx
 804a650:	89 54 24 0c          	mov    %edx,0xc(%esp)
 804a654:	8b 55 10             	mov    0x10(%ebp),%edx
 804a657:	89 54 24 08          	mov    %edx,0x8(%esp)
 804a65b:	c7 44 24 04 0c ba 05 	movl   $0x805ba0c,0x4(%esp)
 804a662:	08 
 804a663:	89 04 24             	mov    %eax,(%esp)
 804a666:	e8 e5 f1 ff ff       	call   8049850 <fprintf@plt>
 804a66b:	b8 00 00 00 00       	mov    $0x0,%eax
 804a670:	eb 67                	jmp    804a6d9 <send_tncmd+0x217>
 804a672:	85 db                	test   %ebx,%ebx
 804a674:	78 08                	js     804a67e <send_tncmd+0x1bc>
 804a676:	81 fb ff 00 00 00    	cmp    $0xff,%ebx
 804a67c:	7e 2a                	jle    804a6a8 <send_tncmd+0x1e6>
 804a67e:	a1 a4 44 06 08       	mov    0x80644a4,%eax
 804a683:	8b 55 0c             	mov    0xc(%ebp),%edx
 804a686:	89 54 24 0c          	mov    %edx,0xc(%esp)
 804a68a:	8b 55 10             	mov    0x10(%ebp),%edx
 804a68d:	89 54 24 08          	mov    %edx,0x8(%esp)
 804a691:	c7 44 24 04 3c ba 05 	movl   $0x805ba3c,0x4(%esp)
 804a698:	08 
 804a699:	89 04 24             	mov    %eax,(%esp)
 804a69c:	e8 af f1 ff ff       	call   8049850 <fprintf@plt>
 804a6a1:	b8 00 00 00 00       	mov    $0x0,%eax
 804a6a6:	eb 31                	jmp    804a6d9 <send_tncmd+0x217>
 804a6a8:	a1 c4 b7 06 08       	mov    0x806b7c4,%eax
 804a6ad:	85 c0                	test   %eax,%eax
 804a6af:	75 13                	jne    804a6c4 <send_tncmd+0x202>
 804a6b1:	c7 04 24 6d b8 05 08 	movl   $0x805b86d,(%esp)
 804a6b8:	e8 e3 f0 ff ff       	call   80497a0 <puts@plt>
 804a6bd:	b8 00 00 00 00       	mov    $0x0,%eax
 804a6c2:	eb 15                	jmp    804a6d9 <send_tncmd+0x217>
 804a6c4:	c7 44 24 04 01 00 00 	movl   $0x1,0x4(%esp)
 804a6cb:	00 
 804a6cc:	89 1c 24             	mov    %ebx,(%esp)
 804a6cf:	8b 45 08             	mov    0x8(%ebp),%eax
 804a6d2:	ff d0                	call   *%eax
 804a6d4:	b8 01 00 00 00       	mov    $0x1,%eax
 804a6d9:	83 c4 20             	add    $0x20,%esp
 804a6dc:	5b                   	pop    %ebx
 804a6dd:	5e                   	pop    %esi
 804a6de:	5d                   	pop    %ebp
 804a6df:	c3                   	ret    

0804a6e0 <send_docmd>:
 804a6e0:	55                   	push   %ebp
 804a6e1:	89 e5                	mov    %esp,%ebp
 804a6e3:	83 ec 18             	sub    $0x18,%esp
 804a6e6:	8b 45 08             	mov    0x8(%ebp),%eax
 804a6e9:	89 44 24 08          	mov    %eax,0x8(%esp)
 804a6ed:	c7 44 24 04 73 b7 05 	movl   $0x805b773,0x4(%esp)
 804a6f4:	08 
 804a6f5:	c7 04 24 e0 f3 04 08 	movl   $0x804f3e0,(%esp)
 804a6fc:	e8 c1 fd ff ff       	call   804a4c2 <send_tncmd>
 804a701:	c9                   	leave  
 804a702:	c3                   	ret    

0804a703 <send_dontcmd>:
 804a703:	55                   	push   %ebp
 804a704:	89 e5                	mov    %esp,%ebp
 804a706:	83 ec 18             	sub    $0x18,%esp
 804a709:	8b 45 08             	mov    0x8(%ebp),%eax
 804a70c:	89 44 24 08          	mov    %eax,0x8(%esp)
 804a710:	c7 44 24 04 76 b7 05 	movl   $0x805b776,0x4(%esp)
 804a717:	08 
 804a718:	c7 04 24 30 f4 04 08 	movl   $0x804f430,(%esp)
 804a71f:	e8 9e fd ff ff       	call   804a4c2 <send_tncmd>
 804a724:	c9                   	leave  
 804a725:	c3                   	ret    

0804a726 <send_willcmd>:
 804a726:	55                   	push   %ebp
 804a727:	89 e5                	mov    %esp,%ebp
 804a729:	83 ec 18             	sub    $0x18,%esp
 804a72c:	8b 45 08             	mov    0x8(%ebp),%eax
 804a72f:	89 44 24 08          	mov    %eax,0x8(%esp)
 804a733:	c7 44 24 04 7b b7 05 	movl   $0x805b77b,0x4(%esp)
 804a73a:	08 
 804a73b:	c7 04 24 80 f4 04 08 	movl   $0x804f480,(%esp)
 804a742:	e8 7b fd ff ff       	call   804a4c2 <send_tncmd>
 804a747:	c9                   	leave  
 804a748:	c3                   	ret    

0804a749 <send_wontcmd>:
 804a749:	55                   	push   %ebp
 804a74a:	89 e5                	mov    %esp,%ebp
 804a74c:	83 ec 18             	sub    $0x18,%esp
 804a74f:	8b 45 08             	mov    0x8(%ebp),%eax
 804a752:	89 44 24 08          	mov    %eax,0x8(%esp)
 804a756:	c7 44 24 04 80 b7 05 	movl   $0x805b780,0x4(%esp)
 804a75d:	08 
 804a75e:	c7 04 24 d0 f4 04 08 	movl   $0x804f4d0,(%esp)
 804a765:	e8 58 fd ff ff       	call   804a4c2 <send_tncmd>
 804a76a:	c9                   	leave  
 804a76b:	c3                   	ret    

0804a76c <send_help>:
 804a76c:	55                   	push   %ebp
 804a76d:	89 e5                	mov    %esp,%ebp
 804a76f:	83 ec 28             	sub    $0x28,%esp
 804a772:	c7 45 f4 e0 31 06 08 	movl   $0x80631e0,-0xc(%ebp)
 804a779:	eb 2d                	jmp    804a7a8 <send_help+0x3c>
 804a77b:	8b 45 f4             	mov    -0xc(%ebp),%eax
 804a77e:	8b 40 04             	mov    0x4(%eax),%eax
 804a781:	85 c0                	test   %eax,%eax
 804a783:	74 1f                	je     804a7a4 <send_help+0x38>
 804a785:	8b 45 f4             	mov    -0xc(%ebp),%eax
 804a788:	8b 50 04             	mov    0x4(%eax),%edx
 804a78b:	8b 45 f4             	mov    -0xc(%ebp),%eax
 804a78e:	8b 00                	mov    (%eax),%eax
 804a790:	89 54 24 08          	mov    %edx,0x8(%esp)
 804a794:	89 44 24 04          	mov    %eax,0x4(%esp)
 804a798:	c7 04 24 65 ba 05 08 	movl   $0x805ba65,(%esp)
 804a79f:	e8 cc ed ff ff       	call   8049570 <printf@plt>
 804a7a4:	83 45 f4 1c          	addl   $0x1c,-0xc(%ebp)
 804a7a8:	8b 45 f4             	mov    -0xc(%ebp),%eax
 804a7ab:	8b 00                	mov    (%eax),%eax
 804a7ad:	85 c0                	test   %eax,%eax
 804a7af:	75 ca                	jne    804a77b <send_help+0xf>
 804a7b1:	b8 00 00 00 00       	mov    $0x0,%eax
 804a7b6:	c9                   	leave  
 804a7b7:	c3                   	ret    

0804a7b8 <lclchars>:
 804a7b8:	55                   	push   %ebp
 804a7b9:	89 e5                	mov    %esp,%ebp
 804a7bb:	c7 05 80 b9 06 08 01 	movl   $0x1,0x806b980
 804a7c2:	00 00 00 
 804a7c5:	b8 01 00 00 00       	mov    $0x1,%eax
 804a7ca:	5d                   	pop    %ebp
 804a7cb:	c3                   	ret    

0804a7cc <togdebug>:
 804a7cc:	55                   	push   %ebp
 804a7cd:	89 e5                	mov    %esp,%ebp
 804a7cf:	83 ec 18             	sub    $0x18,%esp
 804a7d2:	a1 04 b7 06 08       	mov    0x806b704,%eax
 804a7d7:	85 c0                	test   %eax,%eax
 804a7d9:	7e 37                	jle    804a812 <togdebug+0x46>
 804a7db:	8b 15 08 52 06 08    	mov    0x8065208,%edx
 804a7e1:	a1 04 b7 06 08       	mov    0x806b704,%eax
 804a7e6:	89 54 24 0c          	mov    %edx,0xc(%esp)
 804a7ea:	c7 44 24 08 01 00 00 	movl   $0x1,0x8(%esp)
 804a7f1:	00 
 804a7f2:	c7 44 24 04 01 00 00 	movl   $0x1,0x4(%esp)
 804a7f9:	00 
 804a7fa:	89 04 24             	mov    %eax,(%esp)
 804a7fd:	e8 2e 84 00 00       	call   8052c30 <SetSockOpt>
 804a802:	85 c0                	test   %eax,%eax
 804a804:	79 0c                	jns    804a812 <togdebug+0x46>
 804a806:	c7 04 24 6f ba 05 08 	movl   $0x805ba6f,(%esp)
 804a80d:	e8 ee ee ff ff       	call   8049700 <perror@plt>
 804a812:	b8 01 00 00 00       	mov    $0x1,%eax
 804a817:	c9                   	leave  
 804a818:	c3                   	ret    

0804a819 <togcrlf>:
 804a819:	55                   	push   %ebp
 804a81a:	89 e5                	mov    %esp,%ebp
 804a81c:	83 ec 18             	sub    $0x18,%esp
 804a81f:	a1 70 b9 06 08       	mov    0x806b970,%eax
 804a824:	85 c0                	test   %eax,%eax
 804a826:	74 0e                	je     804a836 <togcrlf+0x1d>
 804a828:	c7 04 24 88 ba 05 08 	movl   $0x805ba88,(%esp)
 804a82f:	e8 6c ef ff ff       	call   80497a0 <puts@plt>
 804a834:	eb 0c                	jmp    804a842 <togcrlf+0x29>
 804a836:	c7 04 24 b8 ba 05 08 	movl   $0x805bab8,(%esp)
 804a83d:	e8 5e ef ff ff       	call   80497a0 <puts@plt>
 804a842:	b8 01 00 00 00       	mov    $0x1,%eax
 804a847:	c9                   	leave  
 804a848:	c3                   	ret    

0804a849 <togbinary>:
 804a849:	55                   	push   %ebp
 804a84a:	89 e5                	mov    %esp,%ebp
 804a84c:	83 ec 18             	sub    $0x18,%esp
 804a84f:	c7 05 c0 b7 06 08 01 	movl   $0x1,0x806b7c0
 804a856:	00 00 00 
 804a859:	83 7d 08 00          	cmpl   $0x0,0x8(%ebp)
 804a85d:	78 0a                	js     804a869 <togbinary+0x20>
 804a85f:	8b 45 08             	mov    0x8(%ebp),%eax
 804a862:	a3 a0 56 06 08       	mov    %eax,0x80656a0
 804a867:	eb 6a                	jmp    804a8d3 <togbinary+0x8a>
 804a869:	0f b6 05 20 54 06 08 	movzbl 0x8065420,%eax
 804a870:	0f be c0             	movsbl %al,%eax
 804a873:	83 e0 02             	and    $0x2,%eax
 804a876:	85 c0                	test   %eax,%eax
 804a878:	74 1d                	je     804a897 <togbinary+0x4e>
 804a87a:	0f b6 05 20 54 06 08 	movzbl 0x8065420,%eax
 804a881:	0f be c0             	movsbl %al,%eax
 804a884:	83 e0 08             	and    $0x8,%eax
 804a887:	85 c0                	test   %eax,%eax
 804a889:	74 0c                	je     804a897 <togbinary+0x4e>
 804a88b:	c7 05 a0 56 06 08 01 	movl   $0x1,0x80656a0
 804a892:	00 00 00 
 804a895:	eb 2c                	jmp    804a8c3 <togbinary+0x7a>
 804a897:	0f b6 05 20 54 06 08 	movzbl 0x8065420,%eax
 804a89e:	0f be c0             	movsbl %al,%eax
 804a8a1:	83 e0 02             	and    $0x2,%eax
 804a8a4:	85 c0                	test   %eax,%eax
 804a8a6:	75 1b                	jne    804a8c3 <togbinary+0x7a>
 804a8a8:	0f b6 05 20 54 06 08 	movzbl 0x8065420,%eax
 804a8af:	0f be c0             	movsbl %al,%eax
 804a8b2:	83 e0 08             	and    $0x8,%eax
 804a8b5:	85 c0                	test   %eax,%eax
 804a8b7:	75 0a                	jne    804a8c3 <togbinary+0x7a>
 804a8b9:	c7 05 a0 56 06 08 00 	movl   $0x0,0x80656a0
 804a8c0:	00 00 00 
 804a8c3:	a1 a0 56 06 08       	mov    0x80656a0,%eax
 804a8c8:	85 c0                	test   %eax,%eax
 804a8ca:	0f 94 c0             	sete   %al
 804a8cd:	0f b6 c0             	movzbl %al,%eax
 804a8d0:	89 45 08             	mov    %eax,0x8(%ebp)
 804a8d3:	83 7d 08 01          	cmpl   $0x1,0x8(%ebp)
 804a8d7:	75 4a                	jne    804a923 <togbinary+0xda>
 804a8d9:	0f b6 05 20 54 06 08 	movzbl 0x8065420,%eax
 804a8e0:	0f be c0             	movsbl %al,%eax
 804a8e3:	83 e0 02             	and    $0x2,%eax
 804a8e6:	85 c0                	test   %eax,%eax
 804a8e8:	74 1f                	je     804a909 <togbinary+0xc0>
 804a8ea:	0f b6 05 20 54 06 08 	movzbl 0x8065420,%eax
 804a8f1:	0f be c0             	movsbl %al,%eax
 804a8f4:	83 e0 08             	and    $0x8,%eax
 804a8f7:	85 c0                	test   %eax,%eax
 804a8f9:	74 0e                	je     804a909 <togbinary+0xc0>
 804a8fb:	c7 04 24 e8 ba 05 08 	movl   $0x805bae8,(%esp)
 804a902:	e8 99 ee ff ff       	call   80497a0 <puts@plt>
 804a907:	eb 62                	jmp    804a96b <togbinary+0x122>
 804a909:	c7 04 24 1c bb 05 08 	movl   $0x805bb1c,(%esp)
 804a910:	e8 8b ee ff ff       	call   80497a0 <puts@plt>
 804a915:	c7 04 24 03 00 00 00 	movl   $0x3,(%esp)
 804a91c:	e8 5f 7e 00 00       	call   8052780 <tel_enter_binary>
 804a921:	eb 48                	jmp    804a96b <togbinary+0x122>
 804a923:	0f b6 05 20 54 06 08 	movzbl 0x8065420,%eax
 804a92a:	0f be c0             	movsbl %al,%eax
 804a92d:	83 e0 02             	and    $0x2,%eax
 804a930:	85 c0                	test   %eax,%eax
 804a932:	75 1f                	jne    804a953 <togbinary+0x10a>
 804a934:	0f b6 05 20 54 06 08 	movzbl 0x8065420,%eax
 804a93b:	0f be c0             	movsbl %al,%eax
 804a93e:	83 e0 08             	and    $0x8,%eax
 804a941:	85 c0                	test   %eax,%eax
 804a943:	75 0e                	jne    804a953 <togbinary+0x10a>
 804a945:	c7 04 24 48 bb 05 08 	movl   $0x805bb48,(%esp)
 804a94c:	e8 4f ee ff ff       	call   80497a0 <puts@plt>
 804a951:	eb 18                	jmp    804a96b <togbinary+0x122>
 804a953:	c7 04 24 78 bb 05 08 	movl   $0x805bb78,(%esp)
 804a95a:	e8 41 ee ff ff       	call   80497a0 <puts@plt>
 804a95f:	c7 04 24 03 00 00 00 	movl   $0x3,(%esp)
 804a966:	e8 a5 7f 00 00       	call   8052910 <tel_leave_binary>
 804a96b:	b8 01 00 00 00       	mov    $0x1,%eax
 804a970:	c9                   	leave  
 804a971:	c3                   	ret    

0804a972 <togrbinary>:
 804a972:	55                   	push   %ebp
 804a973:	89 e5                	mov    %esp,%ebp
 804a975:	83 ec 18             	sub    $0x18,%esp
 804a978:	c7 05 c0 b7 06 08 01 	movl   $0x1,0x806b7c0
 804a97f:	00 00 00 
 804a982:	83 7d 08 ff          	cmpl   $0xffffffff,0x8(%ebp)
 804a986:	75 18                	jne    804a9a0 <togrbinary+0x2e>
 804a988:	0f b6 05 20 54 06 08 	movzbl 0x8065420,%eax
 804a98f:	0f be c0             	movsbl %al,%eax
 804a992:	83 e0 08             	and    $0x8,%eax
 804a995:	85 c0                	test   %eax,%eax
 804a997:	0f 94 c0             	sete   %al
 804a99a:	0f b6 c0             	movzbl %al,%eax
 804a99d:	89 45 08             	mov    %eax,0x8(%ebp)
 804a9a0:	83 7d 08 01          	cmpl   $0x1,0x8(%ebp)
 804a9a4:	75 39                	jne    804a9df <togrbinary+0x6d>
 804a9a6:	0f b6 05 20 54 06 08 	movzbl 0x8065420,%eax
 804a9ad:	0f be c0             	movsbl %al,%eax
 804a9b0:	83 e0 08             	and    $0x8,%eax
 804a9b3:	85 c0                	test   %eax,%eax
 804a9b5:	74 0e                	je     804a9c5 <togrbinary+0x53>
 804a9b7:	c7 04 24 ac bb 05 08 	movl   $0x805bbac,(%esp)
 804a9be:	e8 dd ed ff ff       	call   80497a0 <puts@plt>
 804a9c3:	eb 51                	jmp    804aa16 <togrbinary+0xa4>
 804a9c5:	c7 04 24 d0 bb 05 08 	movl   $0x805bbd0,(%esp)
 804a9cc:	e8 cf ed ff ff       	call   80497a0 <puts@plt>
 804a9d1:	c7 04 24 01 00 00 00 	movl   $0x1,(%esp)
 804a9d8:	e8 a3 7d 00 00       	call   8052780 <tel_enter_binary>
 804a9dd:	eb 37                	jmp    804aa16 <togrbinary+0xa4>
 804a9df:	0f b6 05 20 54 06 08 	movzbl 0x8065420,%eax
 804a9e6:	0f be c0             	movsbl %al,%eax
 804a9e9:	83 e0 08             	and    $0x8,%eax
 804a9ec:	85 c0                	test   %eax,%eax
 804a9ee:	75 0e                	jne    804a9fe <togrbinary+0x8c>
 804a9f0:	c7 04 24 f4 bb 05 08 	movl   $0x805bbf4,(%esp)
 804a9f7:	e8 a4 ed ff ff       	call   80497a0 <puts@plt>
 804a9fc:	eb 18                	jmp    804aa16 <togrbinary+0xa4>
 804a9fe:	c7 04 24 20 bc 05 08 	movl   $0x805bc20,(%esp)
 804aa05:	e8 96 ed ff ff       	call   80497a0 <puts@plt>
 804aa0a:	c7 04 24 01 00 00 00 	movl   $0x1,(%esp)
 804aa11:	e8 fa 7e 00 00       	call   8052910 <tel_leave_binary>
 804aa16:	b8 01 00 00 00       	mov    $0x1,%eax
 804aa1b:	c9                   	leave  
 804aa1c:	c3                   	ret    

0804aa1d <togxbinary>:
 804aa1d:	55                   	push   %ebp
 804aa1e:	89 e5                	mov    %esp,%ebp
 804aa20:	83 ec 18             	sub    $0x18,%esp
 804aa23:	c7 05 c0 b7 06 08 01 	movl   $0x1,0x806b7c0
 804aa2a:	00 00 00 
 804aa2d:	83 7d 08 ff          	cmpl   $0xffffffff,0x8(%ebp)
 804aa31:	75 18                	jne    804aa4b <togxbinary+0x2e>
 804aa33:	0f b6 05 20 54 06 08 	movzbl 0x8065420,%eax
 804aa3a:	0f be c0             	movsbl %al,%eax
 804aa3d:	83 e0 02             	and    $0x2,%eax
 804aa40:	85 c0                	test   %eax,%eax
 804aa42:	0f 94 c0             	sete   %al
 804aa45:	0f b6 c0             	movzbl %al,%eax
 804aa48:	89 45 08             	mov    %eax,0x8(%ebp)
 804aa4b:	83 7d 08 01          	cmpl   $0x1,0x8(%ebp)
 804aa4f:	75 39                	jne    804aa8a <togxbinary+0x6d>
 804aa51:	0f b6 05 20 54 06 08 	movzbl 0x8065420,%eax
 804aa58:	0f be c0             	movsbl %al,%eax
 804aa5b:	83 e0 02             	and    $0x2,%eax
 804aa5e:	85 c0                	test   %eax,%eax
 804aa60:	74 0e                	je     804aa70 <togxbinary+0x53>
 804aa62:	c7 04 24 4c bc 05 08 	movl   $0x805bc4c,(%esp)
 804aa69:	e8 32 ed ff ff       	call   80497a0 <puts@plt>
 804aa6e:	eb 51                	jmp    804aac1 <togxbinary+0xa4>
 804aa70:	c7 04 24 74 bc 05 08 	movl   $0x805bc74,(%esp)
 804aa77:	e8 24 ed ff ff       	call   80497a0 <puts@plt>
 804aa7c:	c7 04 24 02 00 00 00 	movl   $0x2,(%esp)
 804aa83:	e8 f8 7c 00 00       	call   8052780 <tel_enter_binary>
 804aa88:	eb 37                	jmp    804aac1 <togxbinary+0xa4>
 804aa8a:	0f b6 05 20 54 06 08 	movzbl 0x8065420,%eax
 804aa91:	0f be c0             	movsbl %al,%eax
 804aa94:	83 e0 02             	and    $0x2,%eax
 804aa97:	85 c0                	test   %eax,%eax
 804aa99:	75 0e                	jne    804aaa9 <togxbinary+0x8c>
 804aa9b:	c7 04 24 98 bc 05 08 	movl   $0x805bc98,(%esp)
 804aaa2:	e8 f9 ec ff ff       	call   80497a0 <puts@plt>
 804aaa7:	eb 18                	jmp    804aac1 <togxbinary+0xa4>
 804aaa9:	c7 04 24 c4 bc 05 08 	movl   $0x805bcc4,(%esp)
 804aab0:	e8 eb ec ff ff       	call   80497a0 <puts@plt>
 804aab5:	c7 04 24 02 00 00 00 	movl   $0x2,(%esp)
 804aabc:	e8 4f 7e 00 00       	call   8052910 <tel_leave_binary>
 804aac1:	b8 01 00 00 00       	mov    $0x1,%eax
 804aac6:	c9                   	leave  
 804aac7:	c3                   	ret    

0804aac8 <togglehelp>:
 804aac8:	55                   	push   %ebp
 804aac9:	89 e5                	mov    %esp,%ebp
 804aacb:	83 ec 28             	sub    $0x28,%esp
 804aace:	c7 45 f4 c0 34 06 08 	movl   $0x80634c0,-0xc(%ebp)
 804aad5:	eb 48                	jmp    804ab1f <togglehelp+0x57>
 804aad7:	8b 45 f4             	mov    -0xc(%ebp),%eax
 804aada:	8b 40 04             	mov    0x4(%eax),%eax
 804aadd:	85 c0                	test   %eax,%eax
 804aadf:	74 3a                	je     804ab1b <togglehelp+0x53>
 804aae1:	8b 45 f4             	mov    -0xc(%ebp),%eax
 804aae4:	8b 40 04             	mov    0x4(%eax),%eax
 804aae7:	0f b6 00             	movzbl (%eax),%eax
 804aaea:	84 c0                	test   %al,%al
 804aaec:	74 21                	je     804ab0f <togglehelp+0x47>
 804aaee:	8b 45 f4             	mov    -0xc(%ebp),%eax
 804aaf1:	8b 50 04             	mov    0x4(%eax),%edx
 804aaf4:	8b 45 f4             	mov    -0xc(%ebp),%eax
 804aaf7:	8b 00                	mov    (%eax),%eax
 804aaf9:	89 54 24 08          	mov    %edx,0x8(%esp)
 804aafd:	89 44 24 04          	mov    %eax,0x4(%esp)
 804ab01:	c7 04 24 3d c1 05 08 	movl   $0x805c13d,(%esp)
 804ab08:	e8 63 ea ff ff       	call   8049570 <printf@plt>
 804ab0d:	eb 0c                	jmp    804ab1b <togglehelp+0x53>
 804ab0f:	c7 04 24 0a 00 00 00 	movl   $0xa,(%esp)
 804ab16:	e8 c5 ed ff ff       	call   80498e0 <putchar@plt>
 804ab1b:	83 45 f4 14          	addl   $0x14,-0xc(%ebp)
 804ab1f:	8b 45 f4             	mov    -0xc(%ebp),%eax
 804ab22:	8b 00                	mov    (%eax),%eax
 804ab24:	85 c0                	test   %eax,%eax
 804ab26:	75 af                	jne    804aad7 <togglehelp+0xf>
 804ab28:	c7 04 24 0a 00 00 00 	movl   $0xa,(%esp)
 804ab2f:	e8 ac ed ff ff       	call   80498e0 <putchar@plt>
 804ab34:	c7 44 24 08 4e c1 05 	movl   $0x805c14e,0x8(%esp)
 804ab3b:	08 
 804ab3c:	c7 44 24 04 57 b7 05 	movl   $0x805b757,0x4(%esp)
 804ab43:	08 
 804ab44:	c7 04 24 65 ba 05 08 	movl   $0x805ba65,(%esp)
 804ab4b:	e8 20 ea ff ff       	call   8049570 <printf@plt>
 804ab50:	b8 00 00 00 00       	mov    $0x0,%eax
 804ab55:	c9                   	leave  
 804ab56:	c3                   	ret    

0804ab57 <settogglehelp>:
 804ab57:	55                   	push   %ebp
 804ab58:	89 e5                	mov    %esp,%ebp
 804ab5a:	83 ec 28             	sub    $0x28,%esp
 804ab5d:	c7 45 f4 c0 34 06 08 	movl   $0x80634c0,-0xc(%ebp)
 804ab64:	eb 5e                	jmp    804abc4 <settogglehelp+0x6d>
 804ab66:	8b 45 f4             	mov    -0xc(%ebp),%eax
 804ab69:	8b 40 04             	mov    0x4(%eax),%eax
 804ab6c:	85 c0                	test   %eax,%eax
 804ab6e:	74 50                	je     804abc0 <settogglehelp+0x69>
 804ab70:	8b 45 f4             	mov    -0xc(%ebp),%eax
 804ab73:	8b 40 04             	mov    0x4(%eax),%eax
 804ab76:	0f b6 00             	movzbl (%eax),%eax
 804ab79:	84 c0                	test   %al,%al
 804ab7b:	74 37                	je     804abb4 <settogglehelp+0x5d>
 804ab7d:	8b 45 f4             	mov    -0xc(%ebp),%eax
 804ab80:	8b 48 04             	mov    0x4(%eax),%ecx
 804ab83:	83 7d 08 00          	cmpl   $0x0,0x8(%ebp)
 804ab87:	74 07                	je     804ab90 <settogglehelp+0x39>
 804ab89:	b8 67 c1 05 08       	mov    $0x805c167,%eax
 804ab8e:	eb 05                	jmp    804ab95 <settogglehelp+0x3e>
 804ab90:	b8 6e c1 05 08       	mov    $0x805c16e,%eax
 804ab95:	8b 55 f4             	mov    -0xc(%ebp),%edx
 804ab98:	8b 12                	mov    (%edx),%edx
 804ab9a:	89 4c 24 0c          	mov    %ecx,0xc(%esp)
 804ab9e:	89 44 24 08          	mov    %eax,0x8(%esp)
 804aba2:	89 54 24 04          	mov    %edx,0x4(%esp)
 804aba6:	c7 04 24 76 c1 05 08 	movl   $0x805c176,(%esp)
 804abad:	e8 be e9 ff ff       	call   8049570 <printf@plt>
 804abb2:	eb 0c                	jmp    804abc0 <settogglehelp+0x69>
 804abb4:	c7 04 24 0a 00 00 00 	movl   $0xa,(%esp)
 804abbb:	e8 20 ed ff ff       	call   80498e0 <putchar@plt>
 804abc0:	83 45 f4 14          	addl   $0x14,-0xc(%ebp)
 804abc4:	8b 45 f4             	mov    -0xc(%ebp),%eax
 804abc7:	8b 00                	mov    (%eax),%eax
 804abc9:	85 c0                	test   %eax,%eax
 804abcb:	75 99                	jne    804ab66 <settogglehelp+0xf>
 804abcd:	c9                   	leave  
 804abce:	c3                   	ret    

0804abcf <toggle>:
 804abcf:	55                   	push   %ebp
 804abd0:	89 e5                	mov    %esp,%ebp
 804abd2:	83 ec 28             	sub    $0x28,%esp
 804abd5:	c7 45 ec 01 00 00 00 	movl   $0x1,-0x14(%ebp)
 804abdc:	83 7d 08 01          	cmpl   $0x1,0x8(%ebp)
 804abe0:	7f 2f                	jg     804ac11 <toggle+0x42>
 804abe2:	a1 a4 44 06 08       	mov    0x80644a4,%eax
 804abe7:	89 44 24 0c          	mov    %eax,0xc(%esp)
 804abeb:	c7 44 24 08 3c 00 00 	movl   $0x3c,0x8(%esp)
 804abf2:	00 
 804abf3:	c7 44 24 04 01 00 00 	movl   $0x1,0x4(%esp)
 804abfa:	00 
 804abfb:	c7 04 24 84 c1 05 08 	movl   $0x805c184,(%esp)
 804ac02:	e8 09 eb ff ff       	call   8049710 <fwrite@plt>
 804ac07:	b8 00 00 00 00       	mov    $0x0,%eax
 804ac0c:	e9 28 01 00 00       	jmp    804ad39 <toggle+0x16a>
 804ac11:	83 6d 08 01          	subl   $0x1,0x8(%ebp)
 804ac15:	83 45 0c 04          	addl   $0x4,0xc(%ebp)
 804ac19:	e9 07 01 00 00       	jmp    804ad25 <toggle+0x156>
 804ac1e:	8b 45 0c             	mov    0xc(%ebp),%eax
 804ac21:	8d 50 04             	lea    0x4(%eax),%edx
 804ac24:	89 55 0c             	mov    %edx,0xc(%ebp)
 804ac27:	8b 00                	mov    (%eax),%eax
 804ac29:	89 45 f0             	mov    %eax,-0x10(%ebp)
 804ac2c:	c7 44 24 08 14 00 00 	movl   $0x14,0x8(%esp)
 804ac33:	00 
 804ac34:	c7 44 24 04 c0 34 06 	movl   $0x80634c0,0x4(%esp)
 804ac3b:	08 
 804ac3c:	8b 45 f0             	mov    -0x10(%ebp),%eax
 804ac3f:	89 04 24             	mov    %eax,(%esp)
 804ac42:	e8 c9 a0 00 00       	call   8054d10 <genget>
 804ac47:	89 45 f4             	mov    %eax,-0xc(%ebp)
 804ac4a:	8b 45 f4             	mov    -0xc(%ebp),%eax
 804ac4d:	89 04 24             	mov    %eax,(%esp)
 804ac50:	e8 3b a1 00 00       	call   8054d90 <Ambiguous>
 804ac55:	85 c0                	test   %eax,%eax
 804ac57:	74 26                	je     804ac7f <toggle+0xb0>
 804ac59:	a1 a4 44 06 08       	mov    0x80644a4,%eax
 804ac5e:	8b 55 f0             	mov    -0x10(%ebp),%edx
 804ac61:	89 54 24 08          	mov    %edx,0x8(%esp)
 804ac65:	c7 44 24 04 c4 c1 05 	movl   $0x805c1c4,0x4(%esp)
 804ac6c:	08 
 804ac6d:	89 04 24             	mov    %eax,(%esp)
 804ac70:	e8 db eb ff ff       	call   8049850 <fprintf@plt>
 804ac75:	b8 00 00 00 00       	mov    $0x0,%eax
 804ac7a:	e9 ba 00 00 00       	jmp    804ad39 <toggle+0x16a>
 804ac7f:	83 7d f4 00          	cmpl   $0x0,-0xc(%ebp)
 804ac83:	75 26                	jne    804acab <toggle+0xdc>
 804ac85:	a1 a4 44 06 08       	mov    0x80644a4,%eax
 804ac8a:	8b 55 f0             	mov    -0x10(%ebp),%edx
 804ac8d:	89 54 24 08          	mov    %edx,0x8(%esp)
 804ac91:	c7 44 24 04 f8 c1 05 	movl   $0x805c1f8,0x4(%esp)
 804ac98:	08 
 804ac99:	89 04 24             	mov    %eax,(%esp)
 804ac9c:	e8 af eb ff ff       	call   8049850 <fprintf@plt>
 804aca1:	b8 00 00 00 00       	mov    $0x0,%eax
 804aca6:	e9 8e 00 00 00       	jmp    804ad39 <toggle+0x16a>
 804acab:	8b 45 f4             	mov    -0xc(%ebp),%eax
 804acae:	8b 40 0c             	mov    0xc(%eax),%eax
 804acb1:	85 c0                	test   %eax,%eax
 804acb3:	74 54                	je     804ad09 <toggle+0x13a>
 804acb5:	8b 45 f4             	mov    -0xc(%ebp),%eax
 804acb8:	8b 40 0c             	mov    0xc(%eax),%eax
 804acbb:	8b 55 f4             	mov    -0xc(%ebp),%edx
 804acbe:	8b 52 0c             	mov    0xc(%edx),%edx
 804acc1:	8b 12                	mov    (%edx),%edx
 804acc3:	85 d2                	test   %edx,%edx
 804acc5:	0f 94 c2             	sete   %dl
 804acc8:	0f b6 d2             	movzbl %dl,%edx
 804accb:	89 10                	mov    %edx,(%eax)
 804accd:	8b 45 f4             	mov    -0xc(%ebp),%eax
 804acd0:	8b 40 10             	mov    0x10(%eax),%eax
 804acd3:	85 c0                	test   %eax,%eax
 804acd5:	74 32                	je     804ad09 <toggle+0x13a>
 804acd7:	8b 45 f4             	mov    -0xc(%ebp),%eax
 804acda:	8b 50 10             	mov    0x10(%eax),%edx
 804acdd:	8b 45 f4             	mov    -0xc(%ebp),%eax
 804ace0:	8b 40 0c             	mov    0xc(%eax),%eax
 804ace3:	8b 00                	mov    (%eax),%eax
 804ace5:	85 c0                	test   %eax,%eax
 804ace7:	74 07                	je     804acf0 <toggle+0x121>
 804ace9:	b8 27 c2 05 08       	mov    $0x805c227,%eax
 804acee:	eb 05                	jmp    804acf5 <toggle+0x126>
 804acf0:	b8 2c c2 05 08       	mov    $0x805c22c,%eax
 804acf5:	89 54 24 08          	mov    %edx,0x8(%esp)
 804acf9:	89 44 24 04          	mov    %eax,0x4(%esp)
 804acfd:	c7 04 24 32 c2 05 08 	movl   $0x805c232,(%esp)
 804ad04:	e8 67 e8 ff ff       	call   8049570 <printf@plt>
 804ad09:	8b 45 f4             	mov    -0xc(%ebp),%eax
 804ad0c:	8b 40 08             	mov    0x8(%eax),%eax
 804ad0f:	85 c0                	test   %eax,%eax
 804ad11:	74 12                	je     804ad25 <toggle+0x156>
 804ad13:	8b 45 f4             	mov    -0xc(%ebp),%eax
 804ad16:	8b 40 08             	mov    0x8(%eax),%eax
 804ad19:	c7 04 24 ff ff ff ff 	movl   $0xffffffff,(%esp)
 804ad20:	ff d0                	call   *%eax
 804ad22:	21 45 ec             	and    %eax,-0x14(%ebp)
 804ad25:	8b 45 08             	mov    0x8(%ebp),%eax
 804ad28:	8d 50 ff             	lea    -0x1(%eax),%edx
 804ad2b:	89 55 08             	mov    %edx,0x8(%ebp)
 804ad2e:	85 c0                	test   %eax,%eax
 804ad30:	0f 85 e8 fe ff ff    	jne    804ac1e <toggle+0x4f>
 804ad36:	8b 45 ec             	mov    -0x14(%ebp),%eax
 804ad39:	c9                   	leave  
 804ad3a:	c3                   	ret    

0804ad3b <getset>:
 804ad3b:	55                   	push   %ebp
 804ad3c:	89 e5                	mov    %esp,%ebp
 804ad3e:	83 ec 18             	sub    $0x18,%esp
 804ad41:	c7 44 24 08 10 00 00 	movl   $0x10,0x8(%esp)
 804ad48:	00 
 804ad49:	c7 44 24 04 40 36 06 	movl   $0x8063640,0x4(%esp)
 804ad50:	08 
 804ad51:	8b 45 08             	mov    0x8(%ebp),%eax
 804ad54:	89 04 24             	mov    %eax,(%esp)
 804ad57:	e8 b4 9f 00 00       	call   8054d10 <genget>
 804ad5c:	c9                   	leave  
 804ad5d:	c3                   	ret    

0804ad5e <set_escape_char>:
 804ad5e:	55                   	push   %ebp
 804ad5f:	89 e5                	mov    %esp,%ebp
 804ad61:	83 ec 18             	sub    $0x18,%esp
 804ad64:	0f b6 05 74 b9 06 08 	movzbl 0x806b974,%eax
 804ad6b:	84 c0                	test   %al,%al
 804ad6d:	74 4b                	je     804adba <set_escape_char+0x5c>
 804ad6f:	83 7d 08 00          	cmpl   $0x0,0x8(%ebp)
 804ad73:	74 17                	je     804ad8c <set_escape_char+0x2e>
 804ad75:	8b 45 08             	mov    0x8(%ebp),%eax
 804ad78:	0f b6 00             	movzbl (%eax),%eax
 804ad7b:	84 c0                	test   %al,%al
 804ad7d:	74 0d                	je     804ad8c <set_escape_char+0x2e>
 804ad7f:	8b 45 08             	mov    0x8(%ebp),%eax
 804ad82:	89 04 24             	mov    %eax,(%esp)
 804ad85:	e8 bc f2 ff ff       	call   804a046 <special>
 804ad8a:	eb 05                	jmp    804ad91 <set_escape_char+0x33>
 804ad8c:	b8 00 00 00 00       	mov    $0x0,%eax
 804ad91:	a2 74 b9 06 08       	mov    %al,0x806b974
 804ad96:	0f b6 05 74 b9 06 08 	movzbl 0x806b974,%eax
 804ad9d:	0f b6 c0             	movzbl %al,%eax
 804ada0:	89 04 24             	mov    %eax,(%esp)
 804ada3:	e8 e5 f2 ff ff       	call   804a08d <control>
 804ada8:	89 44 24 04          	mov    %eax,0x4(%esp)
 804adac:	c7 04 24 74 c5 05 08 	movl   $0x805c574,(%esp)
 804adb3:	e8 b8 e7 ff ff       	call   8049570 <printf@plt>
 804adb8:	eb 49                	jmp    804ae03 <set_escape_char+0xa5>
 804adba:	83 7d 08 00          	cmpl   $0x0,0x8(%ebp)
 804adbe:	74 17                	je     804add7 <set_escape_char+0x79>
 804adc0:	8b 45 08             	mov    0x8(%ebp),%eax
 804adc3:	0f b6 00             	movzbl (%eax),%eax
 804adc6:	84 c0                	test   %al,%al
 804adc8:	74 0d                	je     804add7 <set_escape_char+0x79>
 804adca:	8b 45 08             	mov    0x8(%ebp),%eax
 804adcd:	89 04 24             	mov    %eax,(%esp)
 804add0:	e8 71 f2 ff ff       	call   804a046 <special>
 804add5:	eb 05                	jmp    804addc <set_escape_char+0x7e>
 804add7:	b8 00 00 00 00       	mov    $0x0,%eax
 804addc:	a2 70 ba 06 08       	mov    %al,0x806ba70
 804ade1:	0f b6 05 70 ba 06 08 	movzbl 0x806ba70,%eax
 804ade8:	0f b6 c0             	movzbl %al,%eax
 804adeb:	89 04 24             	mov    %eax,(%esp)
 804adee:	e8 9a f2 ff ff       	call   804a08d <control>
 804adf3:	89 44 24 04          	mov    %eax,0x4(%esp)
 804adf7:	c7 04 24 a0 c5 05 08 	movl   $0x805c5a0,(%esp)
 804adfe:	e8 6d e7 ff ff       	call   8049570 <printf@plt>
 804ae03:	c9                   	leave  
 804ae04:	c3                   	ret    

0804ae05 <setcmd>:
 804ae05:	55                   	push   %ebp
 804ae06:	89 e5                	mov    %esp,%ebp
 804ae08:	83 ec 28             	sub    $0x28,%esp
 804ae0b:	83 7d 08 01          	cmpl   $0x1,0x8(%ebp)
 804ae0f:	7e 06                	jle    804ae17 <setcmd+0x12>
 804ae11:	83 7d 08 03          	cmpl   $0x3,0x8(%ebp)
 804ae15:	7e 16                	jle    804ae2d <setcmd+0x28>
 804ae17:	c7 04 24 c4 c5 05 08 	movl   $0x805c5c4,(%esp)
 804ae1e:	e8 7d e9 ff ff       	call   80497a0 <puts@plt>
 804ae23:	b8 00 00 00 00       	mov    $0x0,%eax
 804ae28:	e9 4a 03 00 00       	jmp    804b177 <setcmd+0x372>
 804ae2d:	83 7d 08 02          	cmpl   $0x2,0x8(%ebp)
 804ae31:	0f 85 ab 00 00 00    	jne    804aee2 <setcmd+0xdd>
 804ae37:	8b 45 0c             	mov    0xc(%ebp),%eax
 804ae3a:	83 c0 04             	add    $0x4,%eax
 804ae3d:	8b 00                	mov    (%eax),%eax
 804ae3f:	c7 44 24 04 57 b7 05 	movl   $0x805b757,0x4(%esp)
 804ae46:	08 
 804ae47:	89 04 24             	mov    %eax,(%esp)
 804ae4a:	e8 e1 9d 00 00       	call   8054c30 <isprefix>
 804ae4f:	85 c0                	test   %eax,%eax
 804ae51:	75 1c                	jne    804ae6f <setcmd+0x6a>
 804ae53:	8b 45 0c             	mov    0xc(%ebp),%eax
 804ae56:	83 c0 04             	add    $0x4,%eax
 804ae59:	8b 00                	mov    (%eax),%eax
 804ae5b:	c7 44 24 04 6e b7 05 	movl   $0x805b76e,0x4(%esp)
 804ae62:	08 
 804ae63:	89 04 24             	mov    %eax,(%esp)
 804ae66:	e8 c5 9d 00 00       	call   8054c30 <isprefix>
 804ae6b:	85 c0                	test   %eax,%eax
 804ae6d:	74 73                	je     804aee2 <setcmd+0xdd>
 804ae6f:	c7 45 f0 40 36 06 08 	movl   $0x8063640,-0x10(%ebp)
 804ae76:	eb 23                	jmp    804ae9b <setcmd+0x96>
 804ae78:	8b 45 f0             	mov    -0x10(%ebp),%eax
 804ae7b:	8b 50 04             	mov    0x4(%eax),%edx
 804ae7e:	8b 45 f0             	mov    -0x10(%ebp),%eax
 804ae81:	8b 00                	mov    (%eax),%eax
 804ae83:	89 54 24 08          	mov    %edx,0x8(%esp)
 804ae87:	89 44 24 04          	mov    %eax,0x4(%esp)
 804ae8b:	c7 04 24 65 ba 05 08 	movl   $0x805ba65,(%esp)
 804ae92:	e8 d9 e6 ff ff       	call   8049570 <printf@plt>
 804ae97:	83 45 f0 10          	addl   $0x10,-0x10(%ebp)
 804ae9b:	8b 45 f0             	mov    -0x10(%ebp),%eax
 804ae9e:	8b 00                	mov    (%eax),%eax
 804aea0:	85 c0                	test   %eax,%eax
 804aea2:	75 d4                	jne    804ae78 <setcmd+0x73>
 804aea4:	c7 04 24 0a 00 00 00 	movl   $0xa,(%esp)
 804aeab:	e8 30 ea ff ff       	call   80498e0 <putchar@plt>
 804aeb0:	c7 04 24 01 00 00 00 	movl   $0x1,(%esp)
 804aeb7:	e8 9b fc ff ff       	call   804ab57 <settogglehelp>
 804aebc:	c7 44 24 08 4e c1 05 	movl   $0x805c14e,0x8(%esp)
 804aec3:	08 
 804aec4:	c7 44 24 04 57 b7 05 	movl   $0x805b757,0x4(%esp)
 804aecb:	08 
 804aecc:	c7 04 24 65 ba 05 08 	movl   $0x805ba65,(%esp)
 804aed3:	e8 98 e6 ff ff       	call   8049570 <printf@plt>
 804aed8:	b8 00 00 00 00       	mov    $0x0,%eax
 804aedd:	e9 95 02 00 00       	jmp    804b177 <setcmd+0x372>
 804aee2:	8b 45 0c             	mov    0xc(%ebp),%eax
 804aee5:	83 c0 04             	add    $0x4,%eax
 804aee8:	8b 00                	mov    (%eax),%eax
 804aeea:	89 04 24             	mov    %eax,(%esp)
 804aeed:	e8 49 fe ff ff       	call   804ad3b <getset>
 804aef2:	89 45 f0             	mov    %eax,-0x10(%ebp)
 804aef5:	83 7d f0 00          	cmpl   $0x0,-0x10(%ebp)
 804aef9:	0f 85 6a 01 00 00    	jne    804b069 <setcmd+0x264>
 804aeff:	8b 45 0c             	mov    0xc(%ebp),%eax
 804af02:	83 c0 04             	add    $0x4,%eax
 804af05:	8b 00                	mov    (%eax),%eax
 804af07:	c7 44 24 08 14 00 00 	movl   $0x14,0x8(%esp)
 804af0e:	00 
 804af0f:	c7 44 24 04 c0 34 06 	movl   $0x80634c0,0x4(%esp)
 804af16:	08 
 804af17:	89 04 24             	mov    %eax,(%esp)
 804af1a:	e8 f1 9d 00 00       	call   8054d10 <genget>
 804af1f:	89 45 f4             	mov    %eax,-0xc(%ebp)
 804af22:	83 7d f4 00          	cmpl   $0x0,-0xc(%ebp)
 804af26:	75 2b                	jne    804af53 <setcmd+0x14e>
 804af28:	8b 45 0c             	mov    0xc(%ebp),%eax
 804af2b:	83 c0 04             	add    $0x4,%eax
 804af2e:	8b 10                	mov    (%eax),%edx
 804af30:	a1 a4 44 06 08       	mov    0x80644a4,%eax
 804af35:	89 54 24 08          	mov    %edx,0x8(%esp)
 804af39:	c7 44 24 04 f4 c5 05 	movl   $0x805c5f4,0x4(%esp)
 804af40:	08 
 804af41:	89 04 24             	mov    %eax,(%esp)
 804af44:	e8 07 e9 ff ff       	call   8049850 <fprintf@plt>
 804af49:	b8 00 00 00 00       	mov    $0x0,%eax
 804af4e:	e9 24 02 00 00       	jmp    804b177 <setcmd+0x372>
 804af53:	8b 45 f4             	mov    -0xc(%ebp),%eax
 804af56:	89 04 24             	mov    %eax,(%esp)
 804af59:	e8 32 9e 00 00       	call   8054d90 <Ambiguous>
 804af5e:	85 c0                	test   %eax,%eax
 804af60:	74 2b                	je     804af8d <setcmd+0x188>
 804af62:	8b 45 0c             	mov    0xc(%ebp),%eax
 804af65:	83 c0 04             	add    $0x4,%eax
 804af68:	8b 10                	mov    (%eax),%edx
 804af6a:	a1 a4 44 06 08       	mov    0x80644a4,%eax
 804af6f:	89 54 24 08          	mov    %edx,0x8(%esp)
 804af73:	c7 44 24 04 20 c6 05 	movl   $0x805c620,0x4(%esp)
 804af7a:	08 
 804af7b:	89 04 24             	mov    %eax,(%esp)
 804af7e:	e8 cd e8 ff ff       	call   8049850 <fprintf@plt>
 804af83:	b8 00 00 00 00       	mov    $0x0,%eax
 804af88:	e9 ea 01 00 00       	jmp    804b177 <setcmd+0x372>
 804af8d:	8b 45 f4             	mov    -0xc(%ebp),%eax
 804af90:	8b 40 0c             	mov    0xc(%eax),%eax
 804af93:	85 c0                	test   %eax,%eax
 804af95:	0f 84 ac 00 00 00    	je     804b047 <setcmd+0x242>
 804af9b:	83 7d 08 02          	cmpl   $0x2,0x8(%ebp)
 804af9f:	74 1c                	je     804afbd <setcmd+0x1b8>
 804afa1:	8b 45 0c             	mov    0xc(%ebp),%eax
 804afa4:	83 c0 08             	add    $0x8,%eax
 804afa7:	8b 00                	mov    (%eax),%eax
 804afa9:	89 44 24 04          	mov    %eax,0x4(%esp)
 804afad:	c7 04 24 4e c6 05 08 	movl   $0x805c64e,(%esp)
 804afb4:	e8 77 e5 ff ff       	call   8049530 <strcmp@plt>
 804afb9:	85 c0                	test   %eax,%eax
 804afbb:	75 0e                	jne    804afcb <setcmd+0x1c6>
 804afbd:	8b 45 f4             	mov    -0xc(%ebp),%eax
 804afc0:	8b 40 0c             	mov    0xc(%eax),%eax
 804afc3:	c7 00 01 00 00 00    	movl   $0x1,(%eax)
 804afc9:	eb 40                	jmp    804b00b <setcmd+0x206>
 804afcb:	8b 45 0c             	mov    0xc(%ebp),%eax
 804afce:	83 c0 08             	add    $0x8,%eax
 804afd1:	8b 00                	mov    (%eax),%eax
 804afd3:	89 44 24 04          	mov    %eax,0x4(%esp)
 804afd7:	c7 04 24 4d b5 05 08 	movl   $0x805b54d,(%esp)
 804afde:	e8 4d e5 ff ff       	call   8049530 <strcmp@plt>
 804afe3:	85 c0                	test   %eax,%eax
 804afe5:	75 0e                	jne    804aff5 <setcmd+0x1f0>
 804afe7:	8b 45 f4             	mov    -0xc(%ebp),%eax
 804afea:	8b 40 0c             	mov    0xc(%eax),%eax
 804afed:	c7 00 00 00 00 00    	movl   $0x0,(%eax)
 804aff3:	eb 16                	jmp    804b00b <setcmd+0x206>
 804aff5:	c7 04 24 54 c6 05 08 	movl   $0x805c654,(%esp)
 804affc:	e8 9f e7 ff ff       	call   80497a0 <puts@plt>
 804b001:	b8 00 00 00 00       	mov    $0x0,%eax
 804b006:	e9 6c 01 00 00       	jmp    804b177 <setcmd+0x372>
 804b00b:	8b 45 f4             	mov    -0xc(%ebp),%eax
 804b00e:	8b 40 10             	mov    0x10(%eax),%eax
 804b011:	85 c0                	test   %eax,%eax
 804b013:	74 32                	je     804b047 <setcmd+0x242>
 804b015:	8b 45 f4             	mov    -0xc(%ebp),%eax
 804b018:	8b 50 10             	mov    0x10(%eax),%edx
 804b01b:	8b 45 f4             	mov    -0xc(%ebp),%eax
 804b01e:	8b 40 0c             	mov    0xc(%eax),%eax
 804b021:	8b 00                	mov    (%eax),%eax
 804b023:	85 c0                	test   %eax,%eax
 804b025:	74 07                	je     804b02e <setcmd+0x229>
 804b027:	b8 27 c2 05 08       	mov    $0x805c227,%eax
 804b02c:	eb 05                	jmp    804b033 <setcmd+0x22e>
 804b02e:	b8 2c c2 05 08       	mov    $0x805c22c,%eax
 804b033:	89 54 24 08          	mov    %edx,0x8(%esp)
 804b037:	89 44 24 04          	mov    %eax,0x4(%esp)
 804b03b:	c7 04 24 32 c2 05 08 	movl   $0x805c232,(%esp)
 804b042:	e8 29 e5 ff ff       	call   8049570 <printf@plt>
 804b047:	8b 45 f4             	mov    -0xc(%ebp),%eax
 804b04a:	8b 40 08             	mov    0x8(%eax),%eax
 804b04d:	85 c0                	test   %eax,%eax
 804b04f:	0f 84 18 01 00 00    	je     804b16d <setcmd+0x368>
 804b055:	8b 45 f4             	mov    -0xc(%ebp),%eax
 804b058:	8b 40 08             	mov    0x8(%eax),%eax
 804b05b:	c7 04 24 01 00 00 00 	movl   $0x1,(%esp)
 804b062:	ff d0                	call   *%eax
 804b064:	e9 04 01 00 00       	jmp    804b16d <setcmd+0x368>
 804b069:	83 7d 08 03          	cmpl   $0x3,0x8(%ebp)
 804b06d:	74 16                	je     804b085 <setcmd+0x280>
 804b06f:	c7 04 24 c4 c5 05 08 	movl   $0x805c5c4,(%esp)
 804b076:	e8 25 e7 ff ff       	call   80497a0 <puts@plt>
 804b07b:	b8 00 00 00 00       	mov    $0x0,%eax
 804b080:	e9 f2 00 00 00       	jmp    804b177 <setcmd+0x372>
 804b085:	8b 45 f0             	mov    -0x10(%ebp),%eax
 804b088:	89 04 24             	mov    %eax,(%esp)
 804b08b:	e8 00 9d 00 00       	call   8054d90 <Ambiguous>
 804b090:	85 c0                	test   %eax,%eax
 804b092:	74 2b                	je     804b0bf <setcmd+0x2ba>
 804b094:	8b 45 0c             	mov    0xc(%ebp),%eax
 804b097:	83 c0 04             	add    $0x4,%eax
 804b09a:	8b 10                	mov    (%eax),%edx
 804b09c:	a1 a4 44 06 08       	mov    0x80644a4,%eax
 804b0a1:	89 54 24 08          	mov    %edx,0x8(%esp)
 804b0a5:	c7 44 24 04 20 c6 05 	movl   $0x805c620,0x4(%esp)
 804b0ac:	08 
 804b0ad:	89 04 24             	mov    %eax,(%esp)
 804b0b0:	e8 9b e7 ff ff       	call   8049850 <fprintf@plt>
 804b0b5:	b8 00 00 00 00       	mov    $0x0,%eax
 804b0ba:	e9 b8 00 00 00       	jmp    804b177 <setcmd+0x372>
 804b0bf:	8b 45 f0             	mov    -0x10(%ebp),%eax
 804b0c2:	8b 40 08             	mov    0x8(%eax),%eax
 804b0c5:	85 c0                	test   %eax,%eax
 804b0c7:	74 34                	je     804b0fd <setcmd+0x2f8>
 804b0c9:	8b 45 f0             	mov    -0x10(%ebp),%eax
 804b0cc:	8b 40 08             	mov    0x8(%eax),%eax
 804b0cf:	8b 55 0c             	mov    0xc(%ebp),%edx
 804b0d2:	83 c2 08             	add    $0x8,%edx
 804b0d5:	8b 12                	mov    (%edx),%edx
 804b0d7:	89 14 24             	mov    %edx,(%esp)
 804b0da:	ff d0                	call   *%eax
 804b0dc:	8b 45 f0             	mov    -0x10(%ebp),%eax
 804b0df:	8b 50 0c             	mov    0xc(%eax),%edx
 804b0e2:	8b 45 f0             	mov    -0x10(%ebp),%eax
 804b0e5:	8b 00                	mov    (%eax),%eax
 804b0e7:	89 54 24 08          	mov    %edx,0x8(%esp)
 804b0eb:	89 44 24 04          	mov    %eax,0x4(%esp)
 804b0ef:	c7 04 24 8a c6 05 08 	movl   $0x805c68a,(%esp)
 804b0f6:	e8 75 e4 ff ff       	call   8049570 <printf@plt>
 804b0fb:	eb 70                	jmp    804b16d <setcmd+0x368>
 804b0fd:	8b 45 0c             	mov    0xc(%ebp),%eax
 804b100:	83 c0 08             	add    $0x8,%eax
 804b103:	8b 00                	mov    (%eax),%eax
 804b105:	89 44 24 04          	mov    %eax,0x4(%esp)
 804b109:	c7 04 24 4d b5 05 08 	movl   $0x805b54d,(%esp)
 804b110:	e8 1b e4 ff ff       	call   8049530 <strcmp@plt>
 804b115:	85 c0                	test   %eax,%eax
 804b117:	74 15                	je     804b12e <setcmd+0x329>
 804b119:	8b 45 0c             	mov    0xc(%ebp),%eax
 804b11c:	83 c0 08             	add    $0x8,%eax
 804b11f:	8b 00                	mov    (%eax),%eax
 804b121:	89 04 24             	mov    %eax,(%esp)
 804b124:	e8 1d ef ff ff       	call   804a046 <special>
 804b129:	89 45 ec             	mov    %eax,-0x14(%ebp)
 804b12c:	eb 07                	jmp    804b135 <setcmd+0x330>
 804b12e:	c7 45 ec 00 00 00 00 	movl   $0x0,-0x14(%ebp)
 804b135:	8b 45 f0             	mov    -0x10(%ebp),%eax
 804b138:	8b 40 0c             	mov    0xc(%eax),%eax
 804b13b:	8b 55 ec             	mov    -0x14(%ebp),%edx
 804b13e:	88 10                	mov    %dl,(%eax)
 804b140:	8b 45 f0             	mov    -0x10(%ebp),%eax
 804b143:	8b 40 0c             	mov    0xc(%eax),%eax
 804b146:	0f b6 00             	movzbl (%eax),%eax
 804b149:	0f b6 c0             	movzbl %al,%eax
 804b14c:	89 04 24             	mov    %eax,(%esp)
 804b14f:	e8 39 ef ff ff       	call   804a08d <control>
 804b154:	8b 55 f0             	mov    -0x10(%ebp),%edx
 804b157:	8b 12                	mov    (%edx),%edx
 804b159:	89 44 24 08          	mov    %eax,0x8(%esp)
 804b15d:	89 54 24 04          	mov    %edx,0x4(%esp)
 804b161:	c7 04 24 9b c6 05 08 	movl   $0x805c69b,(%esp)
 804b168:	e8 03 e4 ff ff       	call   8049570 <printf@plt>
 804b16d:	e8 9e 4e 00 00       	call   8050010 <slc_check>
 804b172:	b8 01 00 00 00       	mov    $0x1,%eax
 804b177:	c9                   	leave  
 804b178:	c3                   	ret    

0804b179 <unsetcmd>:
 804b179:	55                   	push   %ebp
 804b17a:	89 e5                	mov    %esp,%ebp
 804b17c:	53                   	push   %ebx
 804b17d:	83 ec 24             	sub    $0x24,%esp
 804b180:	83 7d 08 01          	cmpl   $0x1,0x8(%ebp)
 804b184:	7f 2f                	jg     804b1b5 <unsetcmd+0x3c>
 804b186:	a1 a4 44 06 08       	mov    0x80644a4,%eax
 804b18b:	89 44 24 0c          	mov    %eax,0xc(%esp)
 804b18f:	c7 44 24 08 3a 00 00 	movl   $0x3a,0x8(%esp)
 804b196:	00 
 804b197:	c7 44 24 04 01 00 00 	movl   $0x1,0x4(%esp)
 804b19e:	00 
 804b19f:	c7 04 24 b4 c6 05 08 	movl   $0x805c6b4,(%esp)
 804b1a6:	e8 65 e5 ff ff       	call   8049710 <fwrite@plt>
 804b1ab:	b8 00 00 00 00       	mov    $0x0,%eax
 804b1b0:	e9 7a 02 00 00       	jmp    804b42f <unsetcmd+0x2b6>
 804b1b5:	8b 45 0c             	mov    0xc(%ebp),%eax
 804b1b8:	83 c0 04             	add    $0x4,%eax
 804b1bb:	8b 00                	mov    (%eax),%eax
 804b1bd:	c7 44 24 04 57 b7 05 	movl   $0x805b757,0x4(%esp)
 804b1c4:	08 
 804b1c5:	89 04 24             	mov    %eax,(%esp)
 804b1c8:	e8 63 9a 00 00       	call   8054c30 <isprefix>
 804b1cd:	85 c0                	test   %eax,%eax
 804b1cf:	75 1c                	jne    804b1ed <unsetcmd+0x74>
 804b1d1:	8b 45 0c             	mov    0xc(%ebp),%eax
 804b1d4:	83 c0 04             	add    $0x4,%eax
 804b1d7:	8b 00                	mov    (%eax),%eax
 804b1d9:	c7 44 24 04 6e b7 05 	movl   $0x805b76e,0x4(%esp)
 804b1e0:	08 
 804b1e1:	89 04 24             	mov    %eax,(%esp)
 804b1e4:	e8 47 9a 00 00       	call   8054c30 <isprefix>
 804b1e9:	85 c0                	test   %eax,%eax
 804b1eb:	74 73                	je     804b260 <unsetcmd+0xe7>
 804b1ed:	c7 45 f0 40 36 06 08 	movl   $0x8063640,-0x10(%ebp)
 804b1f4:	eb 23                	jmp    804b219 <unsetcmd+0xa0>
 804b1f6:	8b 45 f0             	mov    -0x10(%ebp),%eax
 804b1f9:	8b 50 04             	mov    0x4(%eax),%edx
 804b1fc:	8b 45 f0             	mov    -0x10(%ebp),%eax
 804b1ff:	8b 00                	mov    (%eax),%eax
 804b201:	89 54 24 08          	mov    %edx,0x8(%esp)
 804b205:	89 44 24 04          	mov    %eax,0x4(%esp)
 804b209:	c7 04 24 65 ba 05 08 	movl   $0x805ba65,(%esp)
 804b210:	e8 5b e3 ff ff       	call   8049570 <printf@plt>
 804b215:	83 45 f0 10          	addl   $0x10,-0x10(%ebp)
 804b219:	8b 45 f0             	mov    -0x10(%ebp),%eax
 804b21c:	8b 00                	mov    (%eax),%eax
 804b21e:	85 c0                	test   %eax,%eax
 804b220:	75 d4                	jne    804b1f6 <unsetcmd+0x7d>
 804b222:	c7 04 24 0a 00 00 00 	movl   $0xa,(%esp)
 804b229:	e8 b2 e6 ff ff       	call   80498e0 <putchar@plt>
 804b22e:	c7 04 24 00 00 00 00 	movl   $0x0,(%esp)
 804b235:	e8 1d f9 ff ff       	call   804ab57 <settogglehelp>
 804b23a:	c7 44 24 08 4e c1 05 	movl   $0x805c14e,0x8(%esp)
 804b241:	08 
 804b242:	c7 44 24 04 57 b7 05 	movl   $0x805b757,0x4(%esp)
 804b249:	08 
 804b24a:	c7 04 24 65 ba 05 08 	movl   $0x805ba65,(%esp)
 804b251:	e8 1a e3 ff ff       	call   8049570 <printf@plt>
 804b256:	b8 00 00 00 00       	mov    $0x0,%eax
 804b25b:	e9 cf 01 00 00       	jmp    804b42f <unsetcmd+0x2b6>
 804b260:	83 6d 08 01          	subl   $0x1,0x8(%ebp)
 804b264:	83 45 0c 04          	addl   $0x4,0xc(%ebp)
 804b268:	e9 ac 01 00 00       	jmp    804b419 <unsetcmd+0x2a0>
 804b26d:	8b 45 0c             	mov    0xc(%ebp),%eax
 804b270:	8d 50 04             	lea    0x4(%eax),%edx
 804b273:	89 55 0c             	mov    %edx,0xc(%ebp)
 804b276:	8b 18                	mov    (%eax),%ebx
 804b278:	89 1c 24             	mov    %ebx,(%esp)
 804b27b:	e8 bb fa ff ff       	call   804ad3b <getset>
 804b280:	89 45 f0             	mov    %eax,-0x10(%ebp)
 804b283:	83 7d f0 00          	cmpl   $0x0,-0x10(%ebp)
 804b287:	0f 85 ea 00 00 00    	jne    804b377 <unsetcmd+0x1fe>
 804b28d:	c7 44 24 08 14 00 00 	movl   $0x14,0x8(%esp)
 804b294:	00 
 804b295:	c7 44 24 04 c0 34 06 	movl   $0x80634c0,0x4(%esp)
 804b29c:	08 
 804b29d:	89 1c 24             	mov    %ebx,(%esp)
 804b2a0:	e8 6b 9a 00 00       	call   8054d10 <genget>
 804b2a5:	89 45 f4             	mov    %eax,-0xc(%ebp)
 804b2a8:	83 7d f4 00          	cmpl   $0x0,-0xc(%ebp)
 804b2ac:	75 23                	jne    804b2d1 <unsetcmd+0x158>
 804b2ae:	a1 a4 44 06 08       	mov    0x80644a4,%eax
 804b2b3:	89 5c 24 08          	mov    %ebx,0x8(%esp)
 804b2b7:	c7 44 24 04 f0 c6 05 	movl   $0x805c6f0,0x4(%esp)
 804b2be:	08 
 804b2bf:	89 04 24             	mov    %eax,(%esp)
 804b2c2:	e8 89 e5 ff ff       	call   8049850 <fprintf@plt>
 804b2c7:	b8 00 00 00 00       	mov    $0x0,%eax
 804b2cc:	e9 5e 01 00 00       	jmp    804b42f <unsetcmd+0x2b6>
 804b2d1:	8b 45 f4             	mov    -0xc(%ebp),%eax
 804b2d4:	89 04 24             	mov    %eax,(%esp)
 804b2d7:	e8 b4 9a 00 00       	call   8054d90 <Ambiguous>
 804b2dc:	85 c0                	test   %eax,%eax
 804b2de:	74 23                	je     804b303 <unsetcmd+0x18a>
 804b2e0:	a1 a4 44 06 08       	mov    0x80644a4,%eax
 804b2e5:	89 5c 24 08          	mov    %ebx,0x8(%esp)
 804b2e9:	c7 44 24 04 20 c7 05 	movl   $0x805c720,0x4(%esp)
 804b2f0:	08 
 804b2f1:	89 04 24             	mov    %eax,(%esp)
 804b2f4:	e8 57 e5 ff ff       	call   8049850 <fprintf@plt>
 804b2f9:	b8 00 00 00 00       	mov    $0x0,%eax
 804b2fe:	e9 2c 01 00 00       	jmp    804b42f <unsetcmd+0x2b6>
 804b303:	8b 45 f4             	mov    -0xc(%ebp),%eax
 804b306:	8b 40 0c             	mov    0xc(%eax),%eax
 804b309:	85 c0                	test   %eax,%eax
 804b30b:	74 48                	je     804b355 <unsetcmd+0x1dc>
 804b30d:	8b 45 f4             	mov    -0xc(%ebp),%eax
 804b310:	8b 40 0c             	mov    0xc(%eax),%eax
 804b313:	c7 00 00 00 00 00    	movl   $0x0,(%eax)
 804b319:	8b 45 f4             	mov    -0xc(%ebp),%eax
 804b31c:	8b 40 10             	mov    0x10(%eax),%eax
 804b31f:	85 c0                	test   %eax,%eax
 804b321:	74 32                	je     804b355 <unsetcmd+0x1dc>
 804b323:	8b 45 f4             	mov    -0xc(%ebp),%eax
 804b326:	8b 50 10             	mov    0x10(%eax),%edx
 804b329:	8b 45 f4             	mov    -0xc(%ebp),%eax
 804b32c:	8b 40 0c             	mov    0xc(%eax),%eax
 804b32f:	8b 00                	mov    (%eax),%eax
 804b331:	85 c0                	test   %eax,%eax
 804b333:	74 07                	je     804b33c <unsetcmd+0x1c3>
 804b335:	b8 27 c2 05 08       	mov    $0x805c227,%eax
 804b33a:	eb 05                	jmp    804b341 <unsetcmd+0x1c8>
 804b33c:	b8 2c c2 05 08       	mov    $0x805c22c,%eax
 804b341:	89 54 24 08          	mov    %edx,0x8(%esp)
 804b345:	89 44 24 04          	mov    %eax,0x4(%esp)
 804b349:	c7 04 24 32 c2 05 08 	movl   $0x805c232,(%esp)
 804b350:	e8 1b e2 ff ff       	call   8049570 <printf@plt>
 804b355:	8b 45 f4             	mov    -0xc(%ebp),%eax
 804b358:	8b 40 08             	mov    0x8(%eax),%eax
 804b35b:	85 c0                	test   %eax,%eax
 804b35d:	0f 84 b6 00 00 00    	je     804b419 <unsetcmd+0x2a0>
 804b363:	8b 45 f4             	mov    -0xc(%ebp),%eax
 804b366:	8b 40 08             	mov    0x8(%eax),%eax
 804b369:	c7 04 24 00 00 00 00 	movl   $0x0,(%esp)
 804b370:	ff d0                	call   *%eax
 804b372:	e9 a2 00 00 00       	jmp    804b419 <unsetcmd+0x2a0>
 804b377:	8b 45 f0             	mov    -0x10(%ebp),%eax
 804b37a:	89 04 24             	mov    %eax,(%esp)
 804b37d:	e8 0e 9a 00 00       	call   8054d90 <Ambiguous>
 804b382:	85 c0                	test   %eax,%eax
 804b384:	74 23                	je     804b3a9 <unsetcmd+0x230>
 804b386:	a1 a4 44 06 08       	mov    0x80644a4,%eax
 804b38b:	89 5c 24 08          	mov    %ebx,0x8(%esp)
 804b38f:	c7 44 24 04 20 c7 05 	movl   $0x805c720,0x4(%esp)
 804b396:	08 
 804b397:	89 04 24             	mov    %eax,(%esp)
 804b39a:	e8 b1 e4 ff ff       	call   8049850 <fprintf@plt>
 804b39f:	b8 00 00 00 00       	mov    $0x0,%eax
 804b3a4:	e9 86 00 00 00       	jmp    804b42f <unsetcmd+0x2b6>
 804b3a9:	8b 45 f0             	mov    -0x10(%ebp),%eax
 804b3ac:	8b 40 08             	mov    0x8(%eax),%eax
 804b3af:	85 c0                	test   %eax,%eax
 804b3b1:	74 30                	je     804b3e3 <unsetcmd+0x26a>
 804b3b3:	8b 45 f0             	mov    -0x10(%ebp),%eax
 804b3b6:	8b 40 08             	mov    0x8(%eax),%eax
 804b3b9:	c7 04 24 00 00 00 00 	movl   $0x0,(%esp)
 804b3c0:	ff d0                	call   *%eax
 804b3c2:	8b 45 f0             	mov    -0x10(%ebp),%eax
 804b3c5:	8b 50 0c             	mov    0xc(%eax),%edx
 804b3c8:	8b 45 f0             	mov    -0x10(%ebp),%eax
 804b3cb:	8b 00                	mov    (%eax),%eax
 804b3cd:	89 54 24 08          	mov    %edx,0x8(%esp)
 804b3d1:	89 44 24 04          	mov    %eax,0x4(%esp)
 804b3d5:	c7 04 24 50 c7 05 08 	movl   $0x805c750,(%esp)
 804b3dc:	e8 8f e1 ff ff       	call   8049570 <printf@plt>
 804b3e1:	eb 36                	jmp    804b419 <unsetcmd+0x2a0>
 804b3e3:	8b 45 f0             	mov    -0x10(%ebp),%eax
 804b3e6:	8b 40 0c             	mov    0xc(%eax),%eax
 804b3e9:	c6 00 00             	movb   $0x0,(%eax)
 804b3ec:	8b 45 f0             	mov    -0x10(%ebp),%eax
 804b3ef:	8b 40 0c             	mov    0xc(%eax),%eax
 804b3f2:	0f b6 00             	movzbl (%eax),%eax
 804b3f5:	0f b6 c0             	movzbl %al,%eax
 804b3f8:	89 04 24             	mov    %eax,(%esp)
 804b3fb:	e8 8d ec ff ff       	call   804a08d <control>
 804b400:	8b 55 f0             	mov    -0x10(%ebp),%edx
 804b403:	8b 12                	mov    (%edx),%edx
 804b405:	89 44 24 08          	mov    %eax,0x8(%esp)
 804b409:	89 54 24 04          	mov    %edx,0x4(%esp)
 804b40d:	c7 04 24 9b c6 05 08 	movl   $0x805c69b,(%esp)
 804b414:	e8 57 e1 ff ff       	call   8049570 <printf@plt>
 804b419:	8b 45 08             	mov    0x8(%ebp),%eax
 804b41c:	8d 50 ff             	lea    -0x1(%eax),%edx
 804b41f:	89 55 08             	mov    %edx,0x8(%ebp)
 804b422:	85 c0                	test   %eax,%eax
 804b424:	0f 85 43 fe ff ff    	jne    804b26d <unsetcmd+0xf4>
 804b42a:	b8 01 00 00 00       	mov    $0x1,%eax
 804b42f:	83 c4 24             	add    $0x24,%esp
 804b432:	5b                   	pop    %ebx
 804b433:	5d                   	pop    %ebp
 804b434:	c3                   	ret    

0804b435 <dokludgemode>:
 804b435:	55                   	push   %ebp
 804b436:	89 e5                	mov    %esp,%ebp
 804b438:	83 ec 18             	sub    $0x18,%esp
 804b43b:	c7 05 a8 41 06 08 01 	movl   $0x1,0x80641a8
 804b442:	00 00 00 
 804b445:	c7 44 24 04 01 00 00 	movl   $0x1,0x4(%esp)
 804b44c:	00 
 804b44d:	c7 04 24 22 00 00 00 	movl   $0x22,(%esp)
 804b454:	e8 77 40 00 00       	call   804f4d0 <send_wont>
 804b459:	c7 44 24 04 01 00 00 	movl   $0x1,0x4(%esp)
 804b460:	00 
 804b461:	c7 04 24 03 00 00 00 	movl   $0x3,(%esp)
 804b468:	e8 c3 3f 00 00       	call   804f430 <send_dont>
 804b46d:	c7 44 24 04 01 00 00 	movl   $0x1,0x4(%esp)
 804b474:	00 
 804b475:	c7 04 24 01 00 00 00 	movl   $0x1,(%esp)
 804b47c:	e8 af 3f 00 00       	call   804f430 <send_dont>
 804b481:	b8 00 00 00 00       	mov    $0x0,%eax
 804b486:	c9                   	leave  
 804b487:	c3                   	ret    

0804b488 <dolinemode>:
 804b488:	55                   	push   %ebp
 804b489:	89 e5                	mov    %esp,%ebp
 804b48b:	83 ec 18             	sub    $0x18,%esp
 804b48e:	a1 a8 41 06 08       	mov    0x80641a8,%eax
 804b493:	85 c0                	test   %eax,%eax
 804b495:	74 14                	je     804b4ab <dolinemode+0x23>
 804b497:	c7 44 24 04 01 00 00 	movl   $0x1,0x4(%esp)
 804b49e:	00 
 804b49f:	c7 04 24 03 00 00 00 	movl   $0x3,(%esp)
 804b4a6:	e8 85 3f 00 00       	call   804f430 <send_dont>
 804b4ab:	c7 44 24 04 01 00 00 	movl   $0x1,0x4(%esp)
 804b4b2:	00 
 804b4b3:	c7 04 24 22 00 00 00 	movl   $0x22,(%esp)
 804b4ba:	e8 c1 3f 00 00       	call   804f480 <send_will>
 804b4bf:	c7 44 24 04 01 00 00 	movl   $0x1,0x4(%esp)
 804b4c6:	00 
 804b4c7:	c7 04 24 01 00 00 00 	movl   $0x1,(%esp)
 804b4ce:	e8 5d 3f 00 00       	call   804f430 <send_dont>
 804b4d3:	b8 01 00 00 00       	mov    $0x1,%eax
 804b4d8:	c9                   	leave  
 804b4d9:	c3                   	ret    

0804b4da <docharmode>:
 804b4da:	55                   	push   %ebp
 804b4db:	89 e5                	mov    %esp,%ebp
 804b4dd:	83 ec 18             	sub    $0x18,%esp
 804b4e0:	a1 a8 41 06 08       	mov    0x80641a8,%eax
 804b4e5:	85 c0                	test   %eax,%eax
 804b4e7:	74 16                	je     804b4ff <docharmode+0x25>
 804b4e9:	c7 44 24 04 01 00 00 	movl   $0x1,0x4(%esp)
 804b4f0:	00 
 804b4f1:	c7 04 24 03 00 00 00 	movl   $0x3,(%esp)
 804b4f8:	e8 e3 3e 00 00       	call   804f3e0 <send_do>
 804b4fd:	eb 14                	jmp    804b513 <docharmode+0x39>
 804b4ff:	c7 44 24 04 01 00 00 	movl   $0x1,0x4(%esp)
 804b506:	00 
 804b507:	c7 04 24 22 00 00 00 	movl   $0x22,(%esp)
 804b50e:	e8 bd 3f 00 00       	call   804f4d0 <send_wont>
 804b513:	c7 44 24 04 01 00 00 	movl   $0x1,0x4(%esp)
 804b51a:	00 
 804b51b:	c7 04 24 01 00 00 00 	movl   $0x1,(%esp)
 804b522:	e8 b9 3e 00 00       	call   804f3e0 <send_do>
 804b527:	b8 01 00 00 00       	mov    $0x1,%eax
 804b52c:	c9                   	leave  
 804b52d:	c3                   	ret    

0804b52e <dolmmode>:
 804b52e:	55                   	push   %ebp
 804b52f:	89 e5                	mov    %esp,%ebp
 804b531:	83 ec 28             	sub    $0x28,%esp
 804b534:	0f b6 05 42 54 06 08 	movzbl 0x8065442,%eax
 804b53b:	0f be c0             	movsbl %al,%eax
 804b53e:	83 e0 02             	and    $0x2,%eax
 804b541:	85 c0                	test   %eax,%eax
 804b543:	75 1f                	jne    804b564 <dolmmode+0x36>
 804b545:	c7 04 24 64 c7 05 08 	movl   $0x805c764,(%esp)
 804b54c:	e8 4f e2 ff ff       	call   80497a0 <puts@plt>
 804b551:	c7 04 24 91 c7 05 08 	movl   $0x805c791,(%esp)
 804b558:	e8 43 e2 ff ff       	call   80497a0 <puts@plt>
 804b55d:	b8 00 00 00 00       	mov    $0x0,%eax
 804b562:	eb 48                	jmp    804b5ac <dolmmode+0x7e>
 804b564:	83 7d 0c 00          	cmpl   $0x0,0xc(%ebp)
 804b568:	74 11                	je     804b57b <dolmmode+0x4d>
 804b56a:	a1 40 ba 06 08       	mov    0x806ba40,%eax
 804b56f:	89 c2                	mov    %eax,%edx
 804b571:	8b 45 08             	mov    0x8(%ebp),%eax
 804b574:	09 d0                	or     %edx,%eax
 804b576:	88 45 f7             	mov    %al,-0x9(%ebp)
 804b579:	eb 11                	jmp    804b58c <dolmmode+0x5e>
 804b57b:	8b 45 08             	mov    0x8(%ebp),%eax
 804b57e:	f7 d0                	not    %eax
 804b580:	89 c2                	mov    %eax,%edx
 804b582:	a1 40 ba 06 08       	mov    0x806ba40,%eax
 804b587:	21 d0                	and    %edx,%eax
 804b589:	88 45 f7             	mov    %al,-0x9(%ebp)
 804b58c:	c7 44 24 08 01 00 00 	movl   $0x1,0x8(%esp)
 804b593:	00 
 804b594:	c7 44 24 04 01 00 00 	movl   $0x1,0x4(%esp)
 804b59b:	00 
 804b59c:	8d 45 f7             	lea    -0x9(%ebp),%eax
 804b59f:	89 04 24             	mov    %eax,(%esp)
 804b5a2:	e8 f9 46 00 00       	call   804fca0 <lm_mode>
 804b5a7:	b8 01 00 00 00       	mov    $0x1,%eax
 804b5ac:	c9                   	leave  
 804b5ad:	c3                   	ret    

0804b5ae <set_mode>:
 804b5ae:	55                   	push   %ebp
 804b5af:	89 e5                	mov    %esp,%ebp
 804b5b1:	83 ec 18             	sub    $0x18,%esp
 804b5b4:	c7 44 24 04 01 00 00 	movl   $0x1,0x4(%esp)
 804b5bb:	00 
 804b5bc:	8b 45 08             	mov    0x8(%ebp),%eax
 804b5bf:	89 04 24             	mov    %eax,(%esp)
 804b5c2:	e8 67 ff ff ff       	call   804b52e <dolmmode>
 804b5c7:	c9                   	leave  
 804b5c8:	c3                   	ret    

0804b5c9 <clear_mode>:
 804b5c9:	55                   	push   %ebp
 804b5ca:	89 e5                	mov    %esp,%ebp
 804b5cc:	83 ec 18             	sub    $0x18,%esp
 804b5cf:	c7 44 24 04 00 00 00 	movl   $0x0,0x4(%esp)
 804b5d6:	00 
 804b5d7:	8b 45 08             	mov    0x8(%ebp),%eax
 804b5da:	89 04 24             	mov    %eax,(%esp)
 804b5dd:	e8 4c ff ff ff       	call   804b52e <dolmmode>
 804b5e2:	c9                   	leave  
 804b5e3:	c3                   	ret    

0804b5e4 <modehelp>:
 804b5e4:	55                   	push   %ebp
 804b5e5:	89 e5                	mov    %esp,%ebp
 804b5e7:	83 ec 28             	sub    $0x28,%esp
 804b5ea:	c7 04 24 98 c9 05 08 	movl   $0x805c998,(%esp)
 804b5f1:	e8 aa e1 ff ff       	call   80497a0 <puts@plt>
 804b5f6:	c7 45 f4 c0 37 06 08 	movl   $0x80637c0,-0xc(%ebp)
 804b5fd:	eb 48                	jmp    804b647 <modehelp+0x63>
 804b5ff:	8b 45 f4             	mov    -0xc(%ebp),%eax
 804b602:	8b 40 04             	mov    0x4(%eax),%eax
 804b605:	85 c0                	test   %eax,%eax
 804b607:	74 3a                	je     804b643 <modehelp+0x5f>
 804b609:	8b 45 f4             	mov    -0xc(%ebp),%eax
 804b60c:	8b 40 04             	mov    0x4(%eax),%eax
 804b60f:	0f b6 00             	movzbl (%eax),%eax
 804b612:	84 c0                	test   %al,%al
 804b614:	74 21                	je     804b637 <modehelp+0x53>
 804b616:	8b 45 f4             	mov    -0xc(%ebp),%eax
 804b619:	8b 50 04             	mov    0x4(%eax),%edx
 804b61c:	8b 45 f4             	mov    -0xc(%ebp),%eax
 804b61f:	8b 00                	mov    (%eax),%eax
 804b621:	89 54 24 08          	mov    %edx,0x8(%esp)
 804b625:	89 44 24 04          	mov    %eax,0x4(%esp)
 804b629:	c7 04 24 65 ba 05 08 	movl   $0x805ba65,(%esp)
 804b630:	e8 3b df ff ff       	call   8049570 <printf@plt>
 804b635:	eb 0c                	jmp    804b643 <modehelp+0x5f>
 804b637:	c7 04 24 0a 00 00 00 	movl   $0xa,(%esp)
 804b63e:	e8 9d e2 ff ff       	call   80498e0 <putchar@plt>
 804b643:	83 45 f4 14          	addl   $0x14,-0xc(%ebp)
 804b647:	8b 45 f4             	mov    -0xc(%ebp),%eax
 804b64a:	8b 00                	mov    (%eax),%eax
 804b64c:	85 c0                	test   %eax,%eax
 804b64e:	75 af                	jne    804b5ff <modehelp+0x1b>
 804b650:	b8 00 00 00 00       	mov    $0x0,%eax
 804b655:	c9                   	leave  
 804b656:	c3                   	ret    

0804b657 <modecmd>:
 804b657:	55                   	push   %ebp
 804b658:	89 e5                	mov    %esp,%ebp
 804b65a:	83 ec 28             	sub    $0x28,%esp
 804b65d:	83 7d 08 02          	cmpl   $0x2,0x8(%ebp)
 804b661:	74 1d                	je     804b680 <modecmd+0x29>
 804b663:	c7 04 24 cc c9 05 08 	movl   $0x805c9cc,(%esp)
 804b66a:	e8 31 e1 ff ff       	call   80497a0 <puts@plt>
 804b66f:	c7 04 24 91 c7 05 08 	movl   $0x805c791,(%esp)
 804b676:	e8 25 e1 ff ff       	call   80497a0 <puts@plt>
 804b67b:	e9 c8 00 00 00       	jmp    804b748 <modecmd+0xf1>
 804b680:	8b 45 0c             	mov    0xc(%ebp),%eax
 804b683:	83 c0 04             	add    $0x4,%eax
 804b686:	8b 00                	mov    (%eax),%eax
 804b688:	c7 44 24 08 14 00 00 	movl   $0x14,0x8(%esp)
 804b68f:	00 
 804b690:	c7 44 24 04 c0 37 06 	movl   $0x80637c0,0x4(%esp)
 804b697:	08 
 804b698:	89 04 24             	mov    %eax,(%esp)
 804b69b:	e8 70 96 00 00       	call   8054d10 <genget>
 804b6a0:	89 45 f4             	mov    %eax,-0xc(%ebp)
 804b6a3:	83 7d f4 00          	cmpl   $0x0,-0xc(%ebp)
 804b6a7:	75 23                	jne    804b6cc <modecmd+0x75>
 804b6a9:	8b 45 0c             	mov    0xc(%ebp),%eax
 804b6ac:	83 c0 04             	add    $0x4,%eax
 804b6af:	8b 10                	mov    (%eax),%edx
 804b6b1:	a1 a4 44 06 08       	mov    0x80644a4,%eax
 804b6b6:	89 54 24 08          	mov    %edx,0x8(%esp)
 804b6ba:	c7 44 24 04 f0 c9 05 	movl   $0x805c9f0,0x4(%esp)
 804b6c1:	08 
 804b6c2:	89 04 24             	mov    %eax,(%esp)
 804b6c5:	e8 86 e1 ff ff       	call   8049850 <fprintf@plt>
 804b6ca:	eb 7c                	jmp    804b748 <modecmd+0xf1>
 804b6cc:	8b 45 f4             	mov    -0xc(%ebp),%eax
 804b6cf:	89 04 24             	mov    %eax,(%esp)
 804b6d2:	e8 b9 96 00 00       	call   8054d90 <Ambiguous>
 804b6d7:	85 c0                	test   %eax,%eax
 804b6d9:	74 23                	je     804b6fe <modecmd+0xa7>
 804b6db:	8b 45 0c             	mov    0xc(%ebp),%eax
 804b6de:	83 c0 04             	add    $0x4,%eax
 804b6e1:	8b 10                	mov    (%eax),%edx
 804b6e3:	a1 a4 44 06 08       	mov    0x80644a4,%eax
 804b6e8:	89 54 24 08          	mov    %edx,0x8(%esp)
 804b6ec:	c7 44 24 04 18 ca 05 	movl   $0x805ca18,0x4(%esp)
 804b6f3:	08 
 804b6f4:	89 04 24             	mov    %eax,(%esp)
 804b6f7:	e8 54 e1 ff ff       	call   8049850 <fprintf@plt>
 804b6fc:	eb 4a                	jmp    804b748 <modecmd+0xf1>
 804b6fe:	8b 45 f4             	mov    -0xc(%ebp),%eax
 804b701:	8b 40 0c             	mov    0xc(%eax),%eax
 804b704:	85 c0                	test   %eax,%eax
 804b706:	74 23                	je     804b72b <modecmd+0xd4>
 804b708:	a1 c4 b7 06 08       	mov    0x806b7c4,%eax
 804b70d:	85 c0                	test   %eax,%eax
 804b70f:	75 1a                	jne    804b72b <modecmd+0xd4>
 804b711:	c7 04 24 6d b8 05 08 	movl   $0x805b86d,(%esp)
 804b718:	e8 83 e0 ff ff       	call   80497a0 <puts@plt>
 804b71d:	c7 04 24 91 c7 05 08 	movl   $0x805c791,(%esp)
 804b724:	e8 77 e0 ff ff       	call   80497a0 <puts@plt>
 804b729:	eb 1d                	jmp    804b748 <modecmd+0xf1>
 804b72b:	8b 45 f4             	mov    -0xc(%ebp),%eax
 804b72e:	8b 40 08             	mov    0x8(%eax),%eax
 804b731:	85 c0                	test   %eax,%eax
 804b733:	74 13                	je     804b748 <modecmd+0xf1>
 804b735:	8b 45 f4             	mov    -0xc(%ebp),%eax
 804b738:	8b 40 08             	mov    0x8(%eax),%eax
 804b73b:	8b 55 f4             	mov    -0xc(%ebp),%edx
 804b73e:	8b 52 10             	mov    0x10(%edx),%edx
 804b741:	89 14 24             	mov    %edx,(%esp)
 804b744:	ff d0                	call   *%eax
 804b746:	eb 05                	jmp    804b74d <modecmd+0xf6>
 804b748:	b8 00 00 00 00       	mov    $0x0,%eax
 804b74d:	c9                   	leave  
 804b74e:	c3                   	ret    

0804b74f <display>:
 804b74f:	55                   	push   %ebp
 804b750:	89 e5                	mov    %esp,%ebp
 804b752:	83 ec 28             	sub    $0x28,%esp
 804b755:	83 7d 08 01          	cmpl   $0x1,0x8(%ebp)
 804b759:	0f 85 fa 00 00 00    	jne    804b859 <display+0x10a>
 804b75f:	c7 45 ec c0 34 06 08 	movl   $0x80634c0,-0x14(%ebp)
 804b766:	eb 54                	jmp    804b7bc <display+0x6d>
 804b768:	8b 45 ec             	mov    -0x14(%ebp),%eax
 804b76b:	8b 40 0c             	mov    0xc(%eax),%eax
 804b76e:	85 c0                	test   %eax,%eax
 804b770:	74 46                	je     804b7b8 <display+0x69>
 804b772:	8b 45 ec             	mov    -0x14(%ebp),%eax
 804b775:	8b 40 10             	mov    0x10(%eax),%eax
 804b778:	85 c0                	test   %eax,%eax
 804b77a:	74 3c                	je     804b7b8 <display+0x69>
 804b77c:	8b 45 ec             	mov    -0x14(%ebp),%eax
 804b77f:	8b 40 0c             	mov    0xc(%eax),%eax
 804b782:	8b 00                	mov    (%eax),%eax
 804b784:	85 c0                	test   %eax,%eax
 804b786:	74 0e                	je     804b796 <display+0x47>
 804b788:	c7 04 24 7b b7 05 08 	movl   $0x805b77b,(%esp)
 804b78f:	e8 dc dd ff ff       	call   8049570 <printf@plt>
 804b794:	eb 0c                	jmp    804b7a2 <display+0x53>
 804b796:	c7 04 24 42 ca 05 08 	movl   $0x805ca42,(%esp)
 804b79d:	e8 ce dd ff ff       	call   8049570 <printf@plt>
 804b7a2:	8b 45 ec             	mov    -0x14(%ebp),%eax
 804b7a5:	8b 40 10             	mov    0x10(%eax),%eax
 804b7a8:	89 44 24 04          	mov    %eax,0x4(%esp)
 804b7ac:	c7 04 24 48 ca 05 08 	movl   $0x805ca48,(%esp)
 804b7b3:	e8 b8 dd ff ff       	call   8049570 <printf@plt>
 804b7b8:	83 45 ec 14          	addl   $0x14,-0x14(%ebp)
 804b7bc:	8b 45 ec             	mov    -0x14(%ebp),%eax
 804b7bf:	8b 00                	mov    (%eax),%eax
 804b7c1:	85 c0                	test   %eax,%eax
 804b7c3:	75 a3                	jne    804b768 <display+0x19>
 804b7c5:	c7 04 24 0a 00 00 00 	movl   $0xa,(%esp)
 804b7cc:	e8 0f e1 ff ff       	call   80498e0 <putchar@plt>
 804b7d1:	c7 45 f0 40 36 06 08 	movl   $0x8063640,-0x10(%ebp)
 804b7d8:	eb 71                	jmp    804b84b <display+0xfc>
 804b7da:	8b 45 f0             	mov    -0x10(%ebp),%eax
 804b7dd:	8b 00                	mov    (%eax),%eax
 804b7df:	85 c0                	test   %eax,%eax
 804b7e1:	74 64                	je     804b847 <display+0xf8>
 804b7e3:	8b 45 f0             	mov    -0x10(%ebp),%eax
 804b7e6:	8b 00                	mov    (%eax),%eax
 804b7e8:	0f b6 00             	movzbl (%eax),%eax
 804b7eb:	3c 20                	cmp    $0x20,%al
 804b7ed:	74 58                	je     804b847 <display+0xf8>
 804b7ef:	8b 45 f0             	mov    -0x10(%ebp),%eax
 804b7f2:	8b 40 08             	mov    0x8(%eax),%eax
 804b7f5:	85 c0                	test   %eax,%eax
 804b7f7:	75 2f                	jne    804b828 <display+0xd9>
 804b7f9:	8b 45 f0             	mov    -0x10(%ebp),%eax
 804b7fc:	8b 40 0c             	mov    0xc(%eax),%eax
 804b7ff:	0f b6 00             	movzbl (%eax),%eax
 804b802:	0f b6 c0             	movzbl %al,%eax
 804b805:	89 04 24             	mov    %eax,(%esp)
 804b808:	e8 80 e8 ff ff       	call   804a08d <control>
 804b80d:	8b 55 f0             	mov    -0x10(%ebp),%edx
 804b810:	8b 12                	mov    (%edx),%edx
 804b812:	89 44 24 08          	mov    %eax,0x8(%esp)
 804b816:	89 54 24 04          	mov    %edx,0x4(%esp)
 804b81a:	c7 04 24 4e ca 05 08 	movl   $0x805ca4e,(%esp)
 804b821:	e8 4a dd ff ff       	call   8049570 <printf@plt>
 804b826:	eb 1f                	jmp    804b847 <display+0xf8>
 804b828:	8b 45 f0             	mov    -0x10(%ebp),%eax
 804b82b:	8b 50 0c             	mov    0xc(%eax),%edx
 804b82e:	8b 45 f0             	mov    -0x10(%ebp),%eax
 804b831:	8b 00                	mov    (%eax),%eax
 804b833:	89 54 24 08          	mov    %edx,0x8(%esp)
 804b837:	89 44 24 04          	mov    %eax,0x4(%esp)
 804b83b:	c7 04 24 5a ca 05 08 	movl   $0x805ca5a,(%esp)
 804b842:	e8 29 dd ff ff       	call   8049570 <printf@plt>
 804b847:	83 45 f0 10          	addl   $0x10,-0x10(%ebp)
 804b84b:	8b 45 f0             	mov    -0x10(%ebp),%eax
 804b84e:	8b 00                	mov    (%eax),%eax
 804b850:	85 c0                	test   %eax,%eax
 804b852:	75 86                	jne    804b7da <display+0x8b>
 804b854:	e9 ad 01 00 00       	jmp    804ba06 <display+0x2b7>
 804b859:	c7 45 f4 01 00 00 00 	movl   $0x1,-0xc(%ebp)
 804b860:	e9 95 01 00 00       	jmp    804b9fa <display+0x2ab>
 804b865:	8b 45 f4             	mov    -0xc(%ebp),%eax
 804b868:	8d 14 85 00 00 00 00 	lea    0x0(,%eax,4),%edx
 804b86f:	8b 45 0c             	mov    0xc(%ebp),%eax
 804b872:	01 d0                	add    %edx,%eax
 804b874:	8b 00                	mov    (%eax),%eax
 804b876:	89 04 24             	mov    %eax,(%esp)
 804b879:	e8 bd f4 ff ff       	call   804ad3b <getset>
 804b87e:	89 45 f0             	mov    %eax,-0x10(%ebp)
 804b881:	8b 45 f4             	mov    -0xc(%ebp),%eax
 804b884:	8d 14 85 00 00 00 00 	lea    0x0(,%eax,4),%edx
 804b88b:	8b 45 0c             	mov    0xc(%ebp),%eax
 804b88e:	01 d0                	add    %edx,%eax
 804b890:	8b 00                	mov    (%eax),%eax
 804b892:	c7 44 24 08 14 00 00 	movl   $0x14,0x8(%esp)
 804b899:	00 
 804b89a:	c7 44 24 04 c0 34 06 	movl   $0x80634c0,0x4(%esp)
 804b8a1:	08 
 804b8a2:	89 04 24             	mov    %eax,(%esp)
 804b8a5:	e8 66 94 00 00       	call   8054d10 <genget>
 804b8aa:	89 45 ec             	mov    %eax,-0x14(%ebp)
 804b8ad:	8b 45 f0             	mov    -0x10(%ebp),%eax
 804b8b0:	89 04 24             	mov    %eax,(%esp)
 804b8b3:	e8 d8 94 00 00       	call   8054d90 <Ambiguous>
 804b8b8:	85 c0                	test   %eax,%eax
 804b8ba:	75 0f                	jne    804b8cb <display+0x17c>
 804b8bc:	8b 45 ec             	mov    -0x14(%ebp),%eax
 804b8bf:	89 04 24             	mov    %eax,(%esp)
 804b8c2:	e8 c9 94 00 00       	call   8054d90 <Ambiguous>
 804b8c7:	85 c0                	test   %eax,%eax
 804b8c9:	74 2b                	je     804b8f6 <display+0x1a7>
 804b8cb:	8b 45 f4             	mov    -0xc(%ebp),%eax
 804b8ce:	8d 14 85 00 00 00 00 	lea    0x0(,%eax,4),%edx
 804b8d5:	8b 45 0c             	mov    0xc(%ebp),%eax
 804b8d8:	01 d0                	add    %edx,%eax
 804b8da:	8b 00                	mov    (%eax),%eax
 804b8dc:	89 44 24 04          	mov    %eax,0x4(%esp)
 804b8e0:	c7 04 24 66 ca 05 08 	movl   $0x805ca66,(%esp)
 804b8e7:	e8 84 dc ff ff       	call   8049570 <printf@plt>
 804b8ec:	b8 00 00 00 00       	mov    $0x0,%eax
 804b8f1:	e9 1a 01 00 00       	jmp    804ba10 <display+0x2c1>
 804b8f6:	83 7d f0 00          	cmpl   $0x0,-0x10(%ebp)
 804b8fa:	75 31                	jne    804b92d <display+0x1de>
 804b8fc:	83 7d ec 00          	cmpl   $0x0,-0x14(%ebp)
 804b900:	75 2b                	jne    804b92d <display+0x1de>
 804b902:	8b 45 f4             	mov    -0xc(%ebp),%eax
 804b905:	8d 14 85 00 00 00 00 	lea    0x0(,%eax,4),%edx
 804b90c:	8b 45 0c             	mov    0xc(%ebp),%eax
 804b90f:	01 d0                	add    %edx,%eax
 804b911:	8b 00                	mov    (%eax),%eax
 804b913:	89 44 24 04          	mov    %eax,0x4(%esp)
 804b917:	c7 04 24 81 ca 05 08 	movl   $0x805ca81,(%esp)
 804b91e:	e8 4d dc ff ff       	call   8049570 <printf@plt>
 804b923:	b8 00 00 00 00       	mov    $0x0,%eax
 804b928:	e9 e3 00 00 00       	jmp    804ba10 <display+0x2c1>
 804b92d:	83 7d ec 00          	cmpl   $0x0,-0x14(%ebp)
 804b931:	74 50                	je     804b983 <display+0x234>
 804b933:	8b 45 ec             	mov    -0x14(%ebp),%eax
 804b936:	8b 40 0c             	mov    0xc(%eax),%eax
 804b939:	85 c0                	test   %eax,%eax
 804b93b:	74 46                	je     804b983 <display+0x234>
 804b93d:	8b 45 ec             	mov    -0x14(%ebp),%eax
 804b940:	8b 40 10             	mov    0x10(%eax),%eax
 804b943:	85 c0                	test   %eax,%eax
 804b945:	74 3c                	je     804b983 <display+0x234>
 804b947:	8b 45 ec             	mov    -0x14(%ebp),%eax
 804b94a:	8b 40 0c             	mov    0xc(%eax),%eax
 804b94d:	8b 00                	mov    (%eax),%eax
 804b94f:	85 c0                	test   %eax,%eax
 804b951:	74 0e                	je     804b961 <display+0x212>
 804b953:	c7 04 24 7b b7 05 08 	movl   $0x805b77b,(%esp)
 804b95a:	e8 11 dc ff ff       	call   8049570 <printf@plt>
 804b95f:	eb 0c                	jmp    804b96d <display+0x21e>
 804b961:	c7 04 24 42 ca 05 08 	movl   $0x805ca42,(%esp)
 804b968:	e8 03 dc ff ff       	call   8049570 <printf@plt>
 804b96d:	8b 45 ec             	mov    -0x14(%ebp),%eax
 804b970:	8b 40 10             	mov    0x10(%eax),%eax
 804b973:	89 44 24 04          	mov    %eax,0x4(%esp)
 804b977:	c7 04 24 48 ca 05 08 	movl   $0x805ca48,(%esp)
 804b97e:	e8 ed db ff ff       	call   8049570 <printf@plt>
 804b983:	83 7d f0 00          	cmpl   $0x0,-0x10(%ebp)
 804b987:	74 6d                	je     804b9f6 <display+0x2a7>
 804b989:	8b 45 f0             	mov    -0x10(%ebp),%eax
 804b98c:	8b 00                	mov    (%eax),%eax
 804b98e:	85 c0                	test   %eax,%eax
 804b990:	74 64                	je     804b9f6 <display+0x2a7>
 804b992:	8b 45 f0             	mov    -0x10(%ebp),%eax
 804b995:	8b 00                	mov    (%eax),%eax
 804b997:	0f b6 00             	movzbl (%eax),%eax
 804b99a:	3c 20                	cmp    $0x20,%al
 804b99c:	74 58                	je     804b9f6 <display+0x2a7>
 804b99e:	8b 45 f0             	mov    -0x10(%ebp),%eax
 804b9a1:	8b 40 08             	mov    0x8(%eax),%eax
 804b9a4:	85 c0                	test   %eax,%eax
 804b9a6:	75 2f                	jne    804b9d7 <display+0x288>
 804b9a8:	8b 45 f0             	mov    -0x10(%ebp),%eax
 804b9ab:	8b 40 0c             	mov    0xc(%eax),%eax
 804b9ae:	0f b6 00             	movzbl (%eax),%eax
 804b9b1:	0f b6 c0             	movzbl %al,%eax
 804b9b4:	89 04 24             	mov    %eax,(%esp)
 804b9b7:	e8 d1 e6 ff ff       	call   804a08d <control>
 804b9bc:	8b 55 f0             	mov    -0x10(%ebp),%edx
 804b9bf:	8b 12                	mov    (%edx),%edx
 804b9c1:	89 44 24 08          	mov    %eax,0x8(%esp)
 804b9c5:	89 54 24 04          	mov    %edx,0x4(%esp)
 804b9c9:	c7 04 24 4e ca 05 08 	movl   $0x805ca4e,(%esp)
 804b9d0:	e8 9b db ff ff       	call   8049570 <printf@plt>
 804b9d5:	eb 1f                	jmp    804b9f6 <display+0x2a7>
 804b9d7:	8b 45 f0             	mov    -0x10(%ebp),%eax
 804b9da:	8b 50 0c             	mov    0xc(%eax),%edx
 804b9dd:	8b 45 f0             	mov    -0x10(%ebp),%eax
 804b9e0:	8b 00                	mov    (%eax),%eax
 804b9e2:	89 54 24 08          	mov    %edx,0x8(%esp)
 804b9e6:	89 44 24 04          	mov    %eax,0x4(%esp)
 804b9ea:	c7 04 24 5a ca 05 08 	movl   $0x805ca5a,(%esp)
 804b9f1:	e8 7a db ff ff       	call   8049570 <printf@plt>
 804b9f6:	83 45 f4 01          	addl   $0x1,-0xc(%ebp)
 804b9fa:	8b 45 f4             	mov    -0xc(%ebp),%eax
 804b9fd:	3b 45 08             	cmp    0x8(%ebp),%eax
 804ba00:	0f 8c 5f fe ff ff    	jl     804b865 <display+0x116>
 804ba06:	e8 15 77 00 00       	call   8053120 <optionstatus>
 804ba0b:	b8 01 00 00 00       	mov    $0x1,%eax
 804ba10:	c9                   	leave  
 804ba11:	c3                   	ret    

0804ba12 <setescape>:
 804ba12:	55                   	push   %ebp
 804ba13:	89 e5                	mov    %esp,%ebp
 804ba15:	53                   	push   %ebx
 804ba16:	83 ec 54             	sub    $0x54,%esp
 804ba19:	8b 45 0c             	mov    0xc(%ebp),%eax
 804ba1c:	89 45 b4             	mov    %eax,-0x4c(%ebp)
 804ba1f:	65 a1 14 00 00 00    	mov    %gs:0x14,%eax
 804ba25:	89 45 f4             	mov    %eax,-0xc(%ebp)
 804ba28:	31 c0                	xor    %eax,%eax
 804ba2a:	83 7d 08 02          	cmpl   $0x2,0x8(%ebp)
 804ba2e:	7e 08                	jle    804ba38 <setescape+0x26>
 804ba30:	8b 45 b4             	mov    -0x4c(%ebp),%eax
 804ba33:	8b 50 04             	mov    0x4(%eax),%edx
 804ba36:	eb 05                	jmp    804ba3d <setescape+0x2b>
 804ba38:	ba 29 b8 05 08       	mov    $0x805b829,%edx
 804ba3d:	83 7d 08 02          	cmpl   $0x2,0x8(%ebp)
 804ba41:	7e 07                	jle    804ba4a <setescape+0x38>
 804ba43:	b8 65 bf 05 08       	mov    $0x805bf65,%eax
 804ba48:	eb 05                	jmp    804ba4f <setescape+0x3d>
 804ba4a:	b8 29 b8 05 08       	mov    $0x805b829,%eax
 804ba4f:	89 54 24 08          	mov    %edx,0x8(%esp)
 804ba53:	89 44 24 04          	mov    %eax,0x4(%esp)
 804ba57:	c7 04 24 9c ca 05 08 	movl   $0x805ca9c,(%esp)
 804ba5e:	e8 0d db ff ff       	call   8049570 <printf@plt>
 804ba63:	83 7d 08 02          	cmpl   $0x2,0x8(%ebp)
 804ba67:	7e 08                	jle    804ba71 <setescape+0x5f>
 804ba69:	8b 45 b4             	mov    -0x4c(%ebp),%eax
 804ba6c:	8b 58 04             	mov    0x4(%eax),%ebx
 804ba6f:	eb 3f                	jmp    804bab0 <setescape+0x9e>
 804ba71:	c7 04 24 db ca 05 08 	movl   $0x805cadb,(%esp)
 804ba78:	e8 f3 da ff ff       	call   8049570 <printf@plt>
 804ba7d:	a1 c4 44 06 08       	mov    0x80644c4,%eax
 804ba82:	89 44 24 08          	mov    %eax,0x8(%esp)
 804ba86:	c7 44 24 04 32 00 00 	movl   $0x32,0x4(%esp)
 804ba8d:	00 
 804ba8e:	8d 45 c2             	lea    -0x3e(%ebp),%eax
 804ba91:	89 04 24             	mov    %eax,(%esp)
 804ba94:	e8 87 db ff ff       	call   8049620 <fgets@plt>
 804ba99:	85 c0                	test   %eax,%eax
 804ba9b:	75 10                	jne    804baad <setescape+0x9b>
 804ba9d:	c6 45 c2 00          	movb   $0x0,-0x3e(%ebp)
 804baa1:	c7 04 24 0a 00 00 00 	movl   $0xa,(%esp)
 804baa8:	e8 33 de ff ff       	call   80498e0 <putchar@plt>
 804baad:	8d 5d c2             	lea    -0x3e(%ebp),%ebx
 804bab0:	0f b6 03             	movzbl (%ebx),%eax
 804bab3:	84 c0                	test   %al,%al
 804bab5:	74 08                	je     804babf <setescape+0xad>
 804bab7:	0f b6 03             	movzbl (%ebx),%eax
 804baba:	a2 70 ba 06 08       	mov    %al,0x806ba70
 804babf:	a1 74 ba 06 08       	mov    0x806ba74,%eax
 804bac4:	85 c0                	test   %eax,%eax
 804bac6:	75 22                	jne    804baea <setescape+0xd8>
 804bac8:	0f b6 05 70 ba 06 08 	movzbl 0x806ba70,%eax
 804bacf:	0f b6 c0             	movzbl %al,%eax
 804bad2:	89 04 24             	mov    %eax,(%esp)
 804bad5:	e8 b3 e5 ff ff       	call   804a08d <control>
 804bada:	89 44 24 04          	mov    %eax,0x4(%esp)
 804bade:	c7 04 24 f2 ca 05 08 	movl   $0x805caf2,(%esp)
 804bae5:	e8 86 da ff ff       	call   8049570 <printf@plt>
 804baea:	a1 e0 44 06 08       	mov    0x80644e0,%eax
 804baef:	89 04 24             	mov    %eax,(%esp)
 804baf2:	e8 99 da ff ff       	call   8049590 <fflush@plt>
 804baf7:	b8 01 00 00 00       	mov    $0x1,%eax
 804bafc:	8b 4d f4             	mov    -0xc(%ebp),%ecx
 804baff:	65 33 0d 14 00 00 00 	xor    %gs:0x14,%ecx
 804bb06:	74 05                	je     804bb0d <setescape+0xfb>
 804bb08:	e8 63 db ff ff       	call   8049670 <__stack_chk_fail@plt>
 804bb0d:	83 c4 54             	add    $0x54,%esp
 804bb10:	5b                   	pop    %ebx
 804bb11:	5d                   	pop    %ebp
 804bb12:	c3                   	ret    

0804bb13 <togcrmod>:
 804bb13:	55                   	push   %ebp
 804bb14:	89 e5                	mov    %esp,%ebp
 804bb16:	83 ec 18             	sub    $0x18,%esp
 804bb19:	a1 68 ba 06 08       	mov    0x806ba68,%eax
 804bb1e:	85 c0                	test   %eax,%eax
 804bb20:	0f 94 c0             	sete   %al
 804bb23:	0f b6 c0             	movzbl %al,%eax
 804bb26:	a3 68 ba 06 08       	mov    %eax,0x806ba68
 804bb2b:	c7 04 24 10 cb 05 08 	movl   $0x805cb10,(%esp)
 804bb32:	e8 69 dc ff ff       	call   80497a0 <puts@plt>
 804bb37:	a1 68 ba 06 08       	mov    0x806ba68,%eax
 804bb3c:	85 c0                	test   %eax,%eax
 804bb3e:	74 07                	je     804bb47 <togcrmod+0x34>
 804bb40:	b8 27 c2 05 08       	mov    $0x805c227,%eax
 804bb45:	eb 05                	jmp    804bb4c <togcrmod+0x39>
 804bb47:	b8 2c c2 05 08       	mov    $0x805c22c,%eax
 804bb4c:	89 44 24 04          	mov    %eax,0x4(%esp)
 804bb50:	c7 04 24 4c cb 05 08 	movl   $0x805cb4c,(%esp)
 804bb57:	e8 14 da ff ff       	call   8049570 <printf@plt>
 804bb5c:	a1 e0 44 06 08       	mov    0x80644e0,%eax
 804bb61:	89 04 24             	mov    %eax,(%esp)
 804bb64:	e8 27 da ff ff       	call   8049590 <fflush@plt>
 804bb69:	b8 01 00 00 00       	mov    $0x1,%eax
 804bb6e:	c9                   	leave  
 804bb6f:	c3                   	ret    

0804bb70 <suspend>:
 804bb70:	55                   	push   %ebp
 804bb71:	89 e5                	mov    %esp,%ebp
 804bb73:	83 ec 38             	sub    $0x38,%esp
 804bb76:	e8 35 70 00 00       	call   8052bb0 <setcommandmode>
 804bb7b:	8d 45 e8             	lea    -0x18(%ebp),%eax
 804bb7e:	89 44 24 04          	mov    %eax,0x4(%esp)
 804bb82:	8d 45 e4             	lea    -0x1c(%ebp),%eax
 804bb85:	89 04 24             	mov    %eax,(%esp)
 804bb88:	e8 86 2c 00 00       	call   804e813 <TerminalWindowSize>
 804bb8d:	85 c0                	test   %eax,%eax
 804bb8f:	0f 94 c0             	sete   %al
 804bb92:	0f b6 c0             	movzbl %al,%eax
 804bb95:	89 45 f4             	mov    %eax,-0xc(%ebp)
 804bb98:	c7 44 24 04 14 00 00 	movl   $0x14,0x4(%esp)
 804bb9f:	00 
 804bba0:	c7 04 24 00 00 00 00 	movl   $0x0,(%esp)
 804bba7:	e8 34 dc ff ff       	call   80497e0 <kill@plt>
 804bbac:	8d 45 f0             	lea    -0x10(%ebp),%eax
 804bbaf:	89 44 24 04          	mov    %eax,0x4(%esp)
 804bbb3:	8d 45 ec             	lea    -0x14(%ebp),%eax
 804bbb6:	89 04 24             	mov    %eax,(%esp)
 804bbb9:	e8 55 2c 00 00       	call   804e813 <TerminalWindowSize>
 804bbbe:	85 c0                	test   %eax,%eax
 804bbc0:	74 28                	je     804bbea <suspend+0x7a>
 804bbc2:	a1 c4 b7 06 08       	mov    0x806b7c4,%eax
 804bbc7:	85 c0                	test   %eax,%eax
 804bbc9:	74 1f                	je     804bbea <suspend+0x7a>
 804bbcb:	83 7d f4 00          	cmpl   $0x0,-0xc(%ebp)
 804bbcf:	75 14                	jne    804bbe5 <suspend+0x75>
 804bbd1:	8b 55 e4             	mov    -0x1c(%ebp),%edx
 804bbd4:	8b 45 ec             	mov    -0x14(%ebp),%eax
 804bbd7:	39 c2                	cmp    %eax,%edx
 804bbd9:	75 0a                	jne    804bbe5 <suspend+0x75>
 804bbdb:	8b 55 e8             	mov    -0x18(%ebp),%edx
 804bbde:	8b 45 f0             	mov    -0x10(%ebp),%eax
 804bbe1:	39 c2                	cmp    %eax,%edx
 804bbe3:	74 05                	je     804bbea <suspend+0x7a>
 804bbe5:	e8 c6 5b 00 00       	call   80517b0 <sendnaws>
 804bbea:	e8 31 25 00 00       	call   804e120 <TerminalSaveState>
 804bbef:	c7 04 24 00 00 00 00 	movl   $0x0,(%esp)
 804bbf6:	e8 85 6f 00 00       	call   8052b80 <setconnmode>
 804bbfb:	b8 01 00 00 00       	mov    $0x1,%eax
 804bc00:	c9                   	leave  
 804bc01:	c3                   	ret    

0804bc02 <shell>:
 804bc02:	55                   	push   %ebp
 804bc03:	89 e5                	mov    %esp,%ebp
 804bc05:	56                   	push   %esi
 804bc06:	53                   	push   %ebx
 804bc07:	83 ec 40             	sub    $0x40,%esp
 804bc0a:	e8 a1 6f 00 00       	call   8052bb0 <setcommandmode>
 804bc0f:	8d 45 e8             	lea    -0x18(%ebp),%eax
 804bc12:	89 44 24 04          	mov    %eax,0x4(%esp)
 804bc16:	8d 45 e4             	lea    -0x1c(%ebp),%eax
 804bc19:	89 04 24             	mov    %eax,(%esp)
 804bc1c:	e8 f2 2b 00 00       	call   804e813 <TerminalWindowSize>
 804bc21:	85 c0                	test   %eax,%eax
 804bc23:	0f 94 c0             	sete   %al
 804bc26:	0f b6 c0             	movzbl %al,%eax
 804bc29:	89 45 f4             	mov    %eax,-0xc(%ebp)
 804bc2c:	e8 4f dd ff ff       	call   8049980 <vfork@plt>
 804bc31:	83 f8 ff             	cmp    $0xffffffff,%eax
 804bc34:	74 09                	je     804bc3f <shell+0x3d>
 804bc36:	85 c0                	test   %eax,%eax
 804bc38:	74 16                	je     804bc50 <shell+0x4e>
 804bc3a:	e9 9d 00 00 00       	jmp    804bcdc <shell+0xda>
 804bc3f:	c7 04 24 6f cb 05 08 	movl   $0x805cb6f,(%esp)
 804bc46:	e8 b5 da ff ff       	call   8049700 <perror@plt>
 804bc4b:	e9 da 00 00 00       	jmp    804bd2a <shell+0x128>
 804bc50:	c7 04 24 7c cb 05 08 	movl   $0x805cb7c,(%esp)
 804bc57:	e8 14 db ff ff       	call   8049770 <getenv@plt>
 804bc5c:	89 c3                	mov    %eax,%ebx
 804bc5e:	85 db                	test   %ebx,%ebx
 804bc60:	75 05                	jne    804bc67 <shell+0x65>
 804bc62:	bb 82 cb 05 08       	mov    $0x805cb82,%ebx
 804bc67:	c7 44 24 04 2f 00 00 	movl   $0x2f,0x4(%esp)
 804bc6e:	00 
 804bc6f:	89 1c 24             	mov    %ebx,(%esp)
 804bc72:	e8 99 dd ff ff       	call   8049a10 <strrchr@plt>
 804bc77:	89 c6                	mov    %eax,%esi
 804bc79:	85 f6                	test   %esi,%esi
 804bc7b:	75 04                	jne    804bc81 <shell+0x7f>
 804bc7d:	89 de                	mov    %ebx,%esi
 804bc7f:	eb 03                	jmp    804bc84 <shell+0x82>
 804bc81:	83 c6 01             	add    $0x1,%esi
 804bc84:	83 7d 08 01          	cmpl   $0x1,0x8(%ebp)
 804bc88:	7e 26                	jle    804bcb0 <shell+0xae>
 804bc8a:	c7 44 24 10 00 00 00 	movl   $0x0,0x10(%esp)
 804bc91:	00 
 804bc92:	c7 44 24 0c 61 46 06 	movl   $0x8064661,0xc(%esp)
 804bc99:	08 
 804bc9a:	c7 44 24 08 8a cb 05 	movl   $0x805cb8a,0x8(%esp)
 804bca1:	08 
 804bca2:	89 74 24 04          	mov    %esi,0x4(%esp)
 804bca6:	89 1c 24             	mov    %ebx,(%esp)
 804bca9:	e8 b2 dc ff ff       	call   8049960 <execl@plt>
 804bcae:	eb 14                	jmp    804bcc4 <shell+0xc2>
 804bcb0:	c7 44 24 08 00 00 00 	movl   $0x0,0x8(%esp)
 804bcb7:	00 
 804bcb8:	89 74 24 04          	mov    %esi,0x4(%esp)
 804bcbc:	89 1c 24             	mov    %ebx,(%esp)
 804bcbf:	e8 9c dc ff ff       	call   8049960 <execl@plt>
 804bcc4:	c7 04 24 8d cb 05 08 	movl   $0x805cb8d,(%esp)
 804bccb:	e8 30 da ff ff       	call   8049700 <perror@plt>
 804bcd0:	c7 04 24 01 00 00 00 	movl   $0x1,(%esp)
 804bcd7:	e8 c4 d8 ff ff       	call   80495a0 <_exit@plt>
 804bcdc:	b8 00 00 00 00       	mov    $0x0,%eax
 804bce1:	89 04 24             	mov    %eax,(%esp)
 804bce4:	e8 c7 d9 ff ff       	call   80496b0 <wait@plt>
 804bce9:	8d 45 f0             	lea    -0x10(%ebp),%eax
 804bcec:	89 44 24 04          	mov    %eax,0x4(%esp)
 804bcf0:	8d 45 ec             	lea    -0x14(%ebp),%eax
 804bcf3:	89 04 24             	mov    %eax,(%esp)
 804bcf6:	e8 18 2b 00 00       	call   804e813 <TerminalWindowSize>
 804bcfb:	85 c0                	test   %eax,%eax
 804bcfd:	74 2a                	je     804bd29 <shell+0x127>
 804bcff:	a1 c4 b7 06 08       	mov    0x806b7c4,%eax
 804bd04:	85 c0                	test   %eax,%eax
 804bd06:	74 21                	je     804bd29 <shell+0x127>
 804bd08:	83 7d f4 00          	cmpl   $0x0,-0xc(%ebp)
 804bd0c:	75 14                	jne    804bd22 <shell+0x120>
 804bd0e:	8b 55 e4             	mov    -0x1c(%ebp),%edx
 804bd11:	8b 45 ec             	mov    -0x14(%ebp),%eax
 804bd14:	39 c2                	cmp    %eax,%edx
 804bd16:	75 0a                	jne    804bd22 <shell+0x120>
 804bd18:	8b 55 e8             	mov    -0x18(%ebp),%edx
 804bd1b:	8b 45 f0             	mov    -0x10(%ebp),%eax
 804bd1e:	39 c2                	cmp    %eax,%edx
 804bd20:	74 07                	je     804bd29 <shell+0x127>
 804bd22:	e8 89 5a 00 00       	call   80517b0 <sendnaws>
 804bd27:	eb 00                	jmp    804bd29 <shell+0x127>
 804bd29:	90                   	nop
 804bd2a:	b8 01 00 00 00       	mov    $0x1,%eax
 804bd2f:	83 c4 40             	add    $0x40,%esp
 804bd32:	5b                   	pop    %ebx
 804bd33:	5e                   	pop    %esi
 804bd34:	5d                   	pop    %ebp
 804bd35:	c3                   	ret    

0804bd36 <bye>:
 804bd36:	55                   	push   %ebp
 804bd37:	89 e5                	mov    %esp,%ebp
 804bd39:	83 ec 18             	sub    $0x18,%esp
 804bd3c:	a1 c4 b7 06 08       	mov    0x806b7c4,%eax
 804bd41:	85 c0                	test   %eax,%eax
 804bd43:	74 47                	je     804bd8c <bye+0x56>
 804bd45:	a1 04 b7 06 08       	mov    0x806b704,%eax
 804bd4a:	c7 44 24 04 02 00 00 	movl   $0x2,0x4(%esp)
 804bd51:	00 
 804bd52:	89 04 24             	mov    %eax,(%esp)
 804bd55:	e8 96 dd ff ff       	call   8049af0 <shutdown@plt>
 804bd5a:	c7 04 24 93 cb 05 08 	movl   $0x805cb93,(%esp)
 804bd61:	e8 3a da ff ff       	call   80497a0 <puts@plt>
 804bd66:	a1 04 b7 06 08       	mov    0x806b704,%eax
 804bd6b:	89 04 24             	mov    %eax,(%esp)
 804bd6e:	e8 f4 2a 00 00       	call   804e867 <NetClose>
 804bd73:	c7 05 c4 b7 06 08 00 	movl   $0x0,0x806b7c4
 804bd7a:	00 00 00 
 804bd7d:	c7 05 a4 41 06 08 01 	movl   $0x1,0x80641a4
 804bd84:	00 00 00 
 804bd87:	e8 f4 1a 00 00       	call   804d880 <tninit>
 804bd8c:	83 7d 08 02          	cmpl   $0x2,0x8(%ebp)
 804bd90:	75 1c                	jne    804bdae <bye+0x78>
 804bd92:	8b 45 0c             	mov    0xc(%ebp),%eax
 804bd95:	83 c0 04             	add    $0x4,%eax
 804bd98:	8b 00                	mov    (%eax),%eax
 804bd9a:	c7 44 24 04 a6 cb 05 	movl   $0x805cba6,0x4(%esp)
 804bda1:	08 
 804bda2:	89 04 24             	mov    %eax,(%esp)
 804bda5:	e8 86 d7 ff ff       	call   8049530 <strcmp@plt>
 804bdaa:	85 c0                	test   %eax,%eax
 804bdac:	74 14                	je     804bdc2 <bye+0x8c>
 804bdae:	c7 44 24 04 01 00 00 	movl   $0x1,0x4(%esp)
 804bdb5:	00 
 804bdb6:	c7 04 24 e0 b7 06 08 	movl   $0x806b7e0,(%esp)
 804bdbd:	e8 be d7 ff ff       	call   8049580 <longjmp@plt>
 804bdc2:	b8 01 00 00 00       	mov    $0x1,%eax
 804bdc7:	c9                   	leave  
 804bdc8:	c3                   	ret    

0804bdc9 <quit>:
 804bdc9:	55                   	push   %ebp
 804bdca:	89 e5                	mov    %esp,%ebp
 804bdcc:	83 ec 18             	sub    $0x18,%esp
 804bdcf:	c7 44 24 0c 00 00 00 	movl   $0x0,0xc(%esp)
 804bdd6:	00 
 804bdd7:	c7 44 24 08 a6 cb 05 	movl   $0x805cba6,0x8(%esp)
 804bdde:	08 
 804bddf:	c7 44 24 04 af cb 05 	movl   $0x805cbaf,0x4(%esp)
 804bde6:	08 
 804bde7:	c7 04 24 36 bd 04 08 	movl   $0x804bd36,(%esp)
 804bdee:	e8 60 12 00 00       	call   804d053 <call>
 804bdf3:	c7 04 24 00 00 00 00 	movl   $0x0,(%esp)
 804bdfa:	e8 d1 8d 00 00       	call   8054bd0 <Exit>
 804bdff:	b8 00 00 00 00       	mov    $0x0,%eax
 804be04:	c9                   	leave  
 804be05:	c3                   	ret    

0804be06 <logout>:
 804be06:	55                   	push   %ebp
 804be07:	89 e5                	mov    %esp,%ebp
 804be09:	83 ec 18             	sub    $0x18,%esp
 804be0c:	c7 44 24 04 01 00 00 	movl   $0x1,0x4(%esp)
 804be13:	00 
 804be14:	c7 04 24 12 00 00 00 	movl   $0x12,(%esp)
 804be1b:	e8 c0 35 00 00       	call   804f3e0 <send_do>
 804be20:	e8 db 1b 00 00       	call   804da00 <netflush>
 804be25:	b8 01 00 00 00       	mov    $0x1,%eax
 804be2a:	c9                   	leave  
 804be2b:	c3                   	ret    

0804be2c <slc_help>:
 804be2c:	55                   	push   %ebp
 804be2d:	89 e5                	mov    %esp,%ebp
 804be2f:	83 ec 28             	sub    $0x28,%esp
 804be32:	c7 45 f4 a0 39 06 08 	movl   $0x80639a0,-0xc(%ebp)
 804be39:	eb 48                	jmp    804be83 <slc_help+0x57>
 804be3b:	8b 45 f4             	mov    -0xc(%ebp),%eax
 804be3e:	8b 40 04             	mov    0x4(%eax),%eax
 804be41:	85 c0                	test   %eax,%eax
 804be43:	74 3a                	je     804be7f <slc_help+0x53>
 804be45:	8b 45 f4             	mov    -0xc(%ebp),%eax
 804be48:	8b 40 04             	mov    0x4(%eax),%eax
 804be4b:	0f b6 00             	movzbl (%eax),%eax
 804be4e:	84 c0                	test   %al,%al
 804be50:	74 21                	je     804be73 <slc_help+0x47>
 804be52:	8b 45 f4             	mov    -0xc(%ebp),%eax
 804be55:	8b 50 04             	mov    0x4(%eax),%edx
 804be58:	8b 45 f4             	mov    -0xc(%ebp),%eax
 804be5b:	8b 00                	mov    (%eax),%eax
 804be5d:	89 54 24 08          	mov    %edx,0x8(%esp)
 804be61:	89 44 24 04          	mov    %eax,0x4(%esp)
 804be65:	c7 04 24 65 ba 05 08 	movl   $0x805ba65,(%esp)
 804be6c:	e8 ff d6 ff ff       	call   8049570 <printf@plt>
 804be71:	eb 0c                	jmp    804be7f <slc_help+0x53>
 804be73:	c7 04 24 0a 00 00 00 	movl   $0xa,(%esp)
 804be7a:	e8 61 da ff ff       	call   80498e0 <putchar@plt>
 804be7f:	83 45 f4 10          	addl   $0x10,-0xc(%ebp)
 804be83:	8b 45 f4             	mov    -0xc(%ebp),%eax
 804be86:	8b 00                	mov    (%eax),%eax
 804be88:	85 c0                	test   %eax,%eax
 804be8a:	75 af                	jne    804be3b <slc_help+0xf>
 804be8c:	c9                   	leave  
 804be8d:	c3                   	ret    

0804be8e <getslc>:
 804be8e:	55                   	push   %ebp
 804be8f:	89 e5                	mov    %esp,%ebp
 804be91:	83 ec 18             	sub    $0x18,%esp
 804be94:	c7 44 24 08 10 00 00 	movl   $0x10,0x8(%esp)
 804be9b:	00 
 804be9c:	c7 44 24 04 a0 39 06 	movl   $0x80639a0,0x4(%esp)
 804bea3:	08 
 804bea4:	8b 45 08             	mov    0x8(%ebp),%eax
 804bea7:	89 04 24             	mov    %eax,(%esp)
 804beaa:	e8 61 8e 00 00       	call   8054d10 <genget>
 804beaf:	c9                   	leave  
 804beb0:	c3                   	ret    

0804beb1 <slccmd>:
 804beb1:	55                   	push   %ebp
 804beb2:	89 e5                	mov    %esp,%ebp
 804beb4:	83 ec 28             	sub    $0x28,%esp
 804beb7:	83 7d 08 02          	cmpl   $0x2,0x8(%ebp)
 804bebb:	74 2f                	je     804beec <slccmd+0x3b>
 804bebd:	a1 a4 44 06 08       	mov    0x80644a4,%eax
 804bec2:	89 44 24 0c          	mov    %eax,0xc(%esp)
 804bec6:	c7 44 24 08 36 00 00 	movl   $0x36,0x8(%esp)
 804becd:	00 
 804bece:	c7 44 24 04 01 00 00 	movl   $0x1,0x4(%esp)
 804bed5:	00 
 804bed6:	c7 04 24 48 cc 05 08 	movl   $0x805cc48,(%esp)
 804bedd:	e8 2e d8 ff ff       	call   8049710 <fwrite@plt>
 804bee2:	b8 00 00 00 00       	mov    $0x0,%eax
 804bee7:	e9 93 00 00 00       	jmp    804bf7f <slccmd+0xce>
 804beec:	8b 45 0c             	mov    0xc(%ebp),%eax
 804beef:	83 c0 04             	add    $0x4,%eax
 804bef2:	8b 00                	mov    (%eax),%eax
 804bef4:	89 04 24             	mov    %eax,(%esp)
 804bef7:	e8 92 ff ff ff       	call   804be8e <getslc>
 804befc:	89 45 f4             	mov    %eax,-0xc(%ebp)
 804beff:	83 7d f4 00          	cmpl   $0x0,-0xc(%ebp)
 804bf03:	75 28                	jne    804bf2d <slccmd+0x7c>
 804bf05:	8b 45 0c             	mov    0xc(%ebp),%eax
 804bf08:	83 c0 04             	add    $0x4,%eax
 804bf0b:	8b 10                	mov    (%eax),%edx
 804bf0d:	a1 a4 44 06 08       	mov    0x80644a4,%eax
 804bf12:	89 54 24 08          	mov    %edx,0x8(%esp)
 804bf16:	c7 44 24 04 80 cc 05 	movl   $0x805cc80,0x4(%esp)
 804bf1d:	08 
 804bf1e:	89 04 24             	mov    %eax,(%esp)
 804bf21:	e8 2a d9 ff ff       	call   8049850 <fprintf@plt>
 804bf26:	b8 00 00 00 00       	mov    $0x0,%eax
 804bf2b:	eb 52                	jmp    804bf7f <slccmd+0xce>
 804bf2d:	8b 45 f4             	mov    -0xc(%ebp),%eax
 804bf30:	89 04 24             	mov    %eax,(%esp)
 804bf33:	e8 58 8e 00 00       	call   8054d90 <Ambiguous>
 804bf38:	85 c0                	test   %eax,%eax
 804bf3a:	74 28                	je     804bf64 <slccmd+0xb3>
 804bf3c:	8b 45 0c             	mov    0xc(%ebp),%eax
 804bf3f:	83 c0 04             	add    $0x4,%eax
 804bf42:	8b 10                	mov    (%eax),%edx
 804bf44:	a1 a4 44 06 08       	mov    0x80644a4,%eax
 804bf49:	89 54 24 08          	mov    %edx,0x8(%esp)
 804bf4d:	c7 44 24 04 ac cc 05 	movl   $0x805ccac,0x4(%esp)
 804bf54:	08 
 804bf55:	89 04 24             	mov    %eax,(%esp)
 804bf58:	e8 f3 d8 ff ff       	call   8049850 <fprintf@plt>
 804bf5d:	b8 00 00 00 00       	mov    $0x0,%eax
 804bf62:	eb 1b                	jmp    804bf7f <slccmd+0xce>
 804bf64:	8b 45 f4             	mov    -0xc(%ebp),%eax
 804bf67:	8b 40 08             	mov    0x8(%eax),%eax
 804bf6a:	8b 55 f4             	mov    -0xc(%ebp),%edx
 804bf6d:	8b 52 0c             	mov    0xc(%edx),%edx
 804bf70:	89 14 24             	mov    %edx,(%esp)
 804bf73:	ff d0                	call   *%eax
 804bf75:	e8 e6 3d 00 00       	call   804fd60 <slcstate>
 804bf7a:	b8 01 00 00 00       	mov    $0x1,%eax
 804bf7f:	c9                   	leave  
 804bf80:	c3                   	ret    

0804bf81 <env_help>:
 804bf81:	55                   	push   %ebp
 804bf82:	89 e5                	mov    %esp,%ebp
 804bf84:	83 ec 28             	sub    $0x28,%esp
 804bf87:	c7 45 f4 00 3a 06 08 	movl   $0x8063a00,-0xc(%ebp)
 804bf8e:	eb 48                	jmp    804bfd8 <env_help+0x57>
 804bf90:	8b 45 f4             	mov    -0xc(%ebp),%eax
 804bf93:	8b 40 04             	mov    0x4(%eax),%eax
 804bf96:	85 c0                	test   %eax,%eax
 804bf98:	74 3a                	je     804bfd4 <env_help+0x53>
 804bf9a:	8b 45 f4             	mov    -0xc(%ebp),%eax
 804bf9d:	8b 40 04             	mov    0x4(%eax),%eax
 804bfa0:	0f b6 00             	movzbl (%eax),%eax
 804bfa3:	84 c0                	test   %al,%al
 804bfa5:	74 21                	je     804bfc8 <env_help+0x47>
 804bfa7:	8b 45 f4             	mov    -0xc(%ebp),%eax
 804bfaa:	8b 50 04             	mov    0x4(%eax),%edx
 804bfad:	8b 45 f4             	mov    -0xc(%ebp),%eax
 804bfb0:	8b 00                	mov    (%eax),%eax
 804bfb2:	89 54 24 08          	mov    %edx,0x8(%esp)
 804bfb6:	89 44 24 04          	mov    %eax,0x4(%esp)
 804bfba:	c7 04 24 65 ba 05 08 	movl   $0x805ba65,(%esp)
 804bfc1:	e8 aa d5 ff ff       	call   8049570 <printf@plt>
 804bfc6:	eb 0c                	jmp    804bfd4 <env_help+0x53>
 804bfc8:	c7 04 24 0a 00 00 00 	movl   $0xa,(%esp)
 804bfcf:	e8 0c d9 ff ff       	call   80498e0 <putchar@plt>
 804bfd4:	83 45 f4 10          	addl   $0x10,-0xc(%ebp)
 804bfd8:	8b 45 f4             	mov    -0xc(%ebp),%eax
 804bfdb:	8b 00                	mov    (%eax),%eax
 804bfdd:	85 c0                	test   %eax,%eax
 804bfdf:	75 af                	jne    804bf90 <env_help+0xf>
 804bfe1:	c9                   	leave  
 804bfe2:	c3                   	ret    

0804bfe3 <getenvcmd>:
 804bfe3:	55                   	push   %ebp
 804bfe4:	89 e5                	mov    %esp,%ebp
 804bfe6:	83 ec 18             	sub    $0x18,%esp
 804bfe9:	c7 44 24 08 10 00 00 	movl   $0x10,0x8(%esp)
 804bff0:	00 
 804bff1:	c7 44 24 04 00 3a 06 	movl   $0x8063a00,0x4(%esp)
 804bff8:	08 
 804bff9:	8b 45 08             	mov    0x8(%ebp),%eax
 804bffc:	89 04 24             	mov    %eax,(%esp)
 804bfff:	e8 0c 8d 00 00       	call   8054d10 <genget>
 804c004:	c9                   	leave  
 804c005:	c3                   	ret    

0804c006 <env_cmd>:
 804c006:	55                   	push   %ebp
 804c007:	89 e5                	mov    %esp,%ebp
 804c009:	56                   	push   %esi
 804c00a:	53                   	push   %ebx
 804c00b:	83 ec 30             	sub    $0x30,%esp
 804c00e:	83 7d 08 01          	cmpl   $0x1,0x8(%ebp)
 804c012:	7f 2f                	jg     804c043 <env_cmd+0x3d>
 804c014:	a1 a4 44 06 08       	mov    0x80644a4,%eax
 804c019:	89 44 24 0c          	mov    %eax,0xc(%esp)
 804c01d:	c7 44 24 08 3e 00 00 	movl   $0x3e,0x8(%esp)
 804c024:	00 
 804c025:	c7 44 24 04 01 00 00 	movl   $0x1,0x4(%esp)
 804c02c:	00 
 804c02d:	c7 04 24 f4 cd 05 08 	movl   $0x805cdf4,(%esp)
 804c034:	e8 d7 d6 ff ff       	call   8049710 <fwrite@plt>
 804c039:	b8 00 00 00 00       	mov    $0x0,%eax
 804c03e:	e9 1b 01 00 00       	jmp    804c15e <env_cmd+0x158>
 804c043:	8b 45 0c             	mov    0xc(%ebp),%eax
 804c046:	83 c0 04             	add    $0x4,%eax
 804c049:	8b 00                	mov    (%eax),%eax
 804c04b:	89 04 24             	mov    %eax,(%esp)
 804c04e:	e8 90 ff ff ff       	call   804bfe3 <getenvcmd>
 804c053:	89 45 f4             	mov    %eax,-0xc(%ebp)
 804c056:	83 7d f4 00          	cmpl   $0x0,-0xc(%ebp)
 804c05a:	75 2b                	jne    804c087 <env_cmd+0x81>
 804c05c:	8b 45 0c             	mov    0xc(%ebp),%eax
 804c05f:	83 c0 04             	add    $0x4,%eax
 804c062:	8b 10                	mov    (%eax),%edx
 804c064:	a1 a4 44 06 08       	mov    0x80644a4,%eax
 804c069:	89 54 24 08          	mov    %edx,0x8(%esp)
 804c06d:	c7 44 24 04 34 ce 05 	movl   $0x805ce34,0x4(%esp)
 804c074:	08 
 804c075:	89 04 24             	mov    %eax,(%esp)
 804c078:	e8 d3 d7 ff ff       	call   8049850 <fprintf@plt>
 804c07d:	b8 00 00 00 00       	mov    $0x0,%eax
 804c082:	e9 d7 00 00 00       	jmp    804c15e <env_cmd+0x158>
 804c087:	8b 45 f4             	mov    -0xc(%ebp),%eax
 804c08a:	89 04 24             	mov    %eax,(%esp)
 804c08d:	e8 fe 8c 00 00       	call   8054d90 <Ambiguous>
 804c092:	85 c0                	test   %eax,%eax
 804c094:	74 2b                	je     804c0c1 <env_cmd+0xbb>
 804c096:	8b 45 0c             	mov    0xc(%ebp),%eax
 804c099:	83 c0 04             	add    $0x4,%eax
 804c09c:	8b 10                	mov    (%eax),%edx
 804c09e:	a1 a4 44 06 08       	mov    0x80644a4,%eax
 804c0a3:	89 54 24 08          	mov    %edx,0x8(%esp)
 804c0a7:	c7 44 24 04 64 ce 05 	movl   $0x805ce64,0x4(%esp)
 804c0ae:	08 
 804c0af:	89 04 24             	mov    %eax,(%esp)
 804c0b2:	e8 99 d7 ff ff       	call   8049850 <fprintf@plt>
 804c0b7:	b8 00 00 00 00       	mov    $0x0,%eax
 804c0bc:	e9 9d 00 00 00       	jmp    804c15e <env_cmd+0x158>
 804c0c1:	8b 45 f4             	mov    -0xc(%ebp),%eax
 804c0c4:	8b 40 0c             	mov    0xc(%eax),%eax
 804c0c7:	83 c0 02             	add    $0x2,%eax
 804c0ca:	3b 45 08             	cmp    0x8(%ebp),%eax
 804c0cd:	74 6b                	je     804c13a <env_cmd+0x134>
 804c0cf:	8b 45 f4             	mov    -0xc(%ebp),%eax
 804c0d2:	8b 30                	mov    (%eax),%esi
 804c0d4:	8b 45 f4             	mov    -0xc(%ebp),%eax
 804c0d7:	8b 40 0c             	mov    0xc(%eax),%eax
 804c0da:	83 f8 01             	cmp    $0x1,%eax
 804c0dd:	75 07                	jne    804c0e6 <env_cmd+0xe0>
 804c0df:	ba 29 b8 05 08       	mov    $0x805b829,%edx
 804c0e4:	eb 05                	jmp    804c0eb <env_cmd+0xe5>
 804c0e6:	ba 2a b8 05 08       	mov    $0x805b82a,%edx
 804c0eb:	8b 45 f4             	mov    -0xc(%ebp),%eax
 804c0ee:	8b 58 0c             	mov    0xc(%eax),%ebx
 804c0f1:	8b 45 f4             	mov    -0xc(%ebp),%eax
 804c0f4:	8b 40 0c             	mov    0xc(%eax),%eax
 804c0f7:	8b 4d 08             	mov    0x8(%ebp),%ecx
 804c0fa:	83 c1 02             	add    $0x2,%ecx
 804c0fd:	39 c8                	cmp    %ecx,%eax
 804c0ff:	7d 07                	jge    804c108 <env_cmd+0x102>
 804c101:	b8 96 ce 05 08       	mov    $0x805ce96,%eax
 804c106:	eb 05                	jmp    804c10d <env_cmd+0x107>
 804c108:	b8 29 b8 05 08       	mov    $0x805b829,%eax
 804c10d:	8b 0d a4 44 06 08    	mov    0x80644a4,%ecx
 804c113:	89 74 24 14          	mov    %esi,0x14(%esp)
 804c117:	89 54 24 10          	mov    %edx,0x10(%esp)
 804c11b:	89 5c 24 0c          	mov    %ebx,0xc(%esp)
 804c11f:	89 44 24 08          	mov    %eax,0x8(%esp)
 804c123:	c7 44 24 04 9c ce 05 	movl   $0x805ce9c,0x4(%esp)
 804c12a:	08 
 804c12b:	89 0c 24             	mov    %ecx,(%esp)
 804c12e:	e8 1d d7 ff ff       	call   8049850 <fprintf@plt>
 804c133:	b8 00 00 00 00       	mov    $0x0,%eax
 804c138:	eb 24                	jmp    804c15e <env_cmd+0x158>
 804c13a:	8b 45 f4             	mov    -0xc(%ebp),%eax
 804c13d:	8b 40 08             	mov    0x8(%eax),%eax
 804c140:	8b 55 0c             	mov    0xc(%ebp),%edx
 804c143:	83 c2 0c             	add    $0xc,%edx
 804c146:	8b 0a                	mov    (%edx),%ecx
 804c148:	8b 55 0c             	mov    0xc(%ebp),%edx
 804c14b:	83 c2 08             	add    $0x8,%edx
 804c14e:	8b 12                	mov    (%edx),%edx
 804c150:	89 4c 24 04          	mov    %ecx,0x4(%esp)
 804c154:	89 14 24             	mov    %edx,(%esp)
 804c157:	ff d0                	call   *%eax
 804c159:	b8 01 00 00 00       	mov    $0x1,%eax
 804c15e:	83 c4 30             	add    $0x30,%esp
 804c161:	5b                   	pop    %ebx
 804c162:	5e                   	pop    %esi
 804c163:	5d                   	pop    %ebp
 804c164:	c3                   	ret    

0804c165 <env_find>:
 804c165:	55                   	push   %ebp
 804c166:	89 e5                	mov    %esp,%ebp
 804c168:	53                   	push   %ebx
 804c169:	83 ec 14             	sub    $0x14,%esp
 804c16c:	8b 1d 88 56 06 08    	mov    0x8065688,%ebx
 804c172:	eb 1c                	jmp    804c190 <env_find+0x2b>
 804c174:	8b 43 08             	mov    0x8(%ebx),%eax
 804c177:	8b 55 08             	mov    0x8(%ebp),%edx
 804c17a:	89 54 24 04          	mov    %edx,0x4(%esp)
 804c17e:	89 04 24             	mov    %eax,(%esp)
 804c181:	e8 aa d3 ff ff       	call   8049530 <strcmp@plt>
 804c186:	85 c0                	test   %eax,%eax
 804c188:	75 04                	jne    804c18e <env_find+0x29>
 804c18a:	89 d8                	mov    %ebx,%eax
 804c18c:	eb 0b                	jmp    804c199 <env_find+0x34>
 804c18e:	8b 1b                	mov    (%ebx),%ebx
 804c190:	85 db                	test   %ebx,%ebx
 804c192:	75 e0                	jne    804c174 <env_find+0xf>
 804c194:	b8 00 00 00 00       	mov    $0x0,%eax
 804c199:	83 c4 14             	add    $0x14,%esp
 804c19c:	5b                   	pop    %ebx
 804c19d:	5d                   	pop    %ebp
 804c19e:	c3                   	ret    

0804c19f <env_init>:
 804c19f:	55                   	push   %ebp
 804c1a0:	89 e5                	mov    %esp,%ebp
 804c1a2:	57                   	push   %edi
 804c1a3:	56                   	push   %esi
 804c1a4:	53                   	push   %ebx
 804c1a5:	83 ec 2c             	sub    $0x2c,%esp
 804c1a8:	8b 3d a0 44 06 08    	mov    0x80644a0,%edi
 804c1ae:	eb 3b                	jmp    804c1eb <env_init+0x4c>
 804c1b0:	8b 07                	mov    (%edi),%eax
 804c1b2:	c7 44 24 04 3d 00 00 	movl   $0x3d,0x4(%esp)
 804c1b9:	00 
 804c1ba:	89 04 24             	mov    %eax,(%esp)
 804c1bd:	e8 4e d6 ff ff       	call   8049810 <strchr@plt>
 804c1c2:	89 c6                	mov    %eax,%esi
 804c1c4:	85 f6                	test   %esi,%esi
 804c1c6:	74 20                	je     804c1e8 <env_init+0x49>
 804c1c8:	c6 06 00             	movb   $0x0,(%esi)
 804c1cb:	8d 56 01             	lea    0x1(%esi),%edx
 804c1ce:	8b 07                	mov    (%edi),%eax
 804c1d0:	89 54 24 04          	mov    %edx,0x4(%esp)
 804c1d4:	89 04 24             	mov    %eax,(%esp)
 804c1d7:	e8 31 01 00 00       	call   804c30d <env_define>
 804c1dc:	89 c3                	mov    %eax,%ebx
 804c1de:	c7 43 10 00 00 00 00 	movl   $0x0,0x10(%ebx)
 804c1e5:	c6 06 3d             	movb   $0x3d,(%esi)
 804c1e8:	83 c7 04             	add    $0x4,%edi
 804c1eb:	8b 07                	mov    (%edi),%eax
 804c1ed:	85 c0                	test   %eax,%eax
 804c1ef:	75 bf                	jne    804c1b0 <env_init+0x11>
 804c1f1:	c7 04 24 e2 ce 05 08 	movl   $0x805cee2,(%esp)
 804c1f8:	e8 68 ff ff ff       	call   804c165 <env_find>
 804c1fd:	89 c3                	mov    %eax,%ebx
 804c1ff:	85 db                	test   %ebx,%ebx
 804c201:	0f 84 a5 00 00 00    	je     804c2ac <env_init+0x10d>
 804c207:	8b 43 0c             	mov    0xc(%ebx),%eax
 804c20a:	0f b6 00             	movzbl (%eax),%eax
 804c20d:	3c 3a                	cmp    $0x3a,%al
 804c20f:	74 1f                	je     804c230 <env_init+0x91>
 804c211:	8b 43 0c             	mov    0xc(%ebx),%eax
 804c214:	c7 44 24 08 05 00 00 	movl   $0x5,0x8(%esp)
 804c21b:	00 
 804c21c:	c7 44 24 04 ea ce 05 	movl   $0x805ceea,0x4(%esp)
 804c223:	08 
 804c224:	89 04 24             	mov    %eax,(%esp)
 804c227:	e8 84 d8 ff ff       	call   8049ab0 <strncmp@plt>
 804c22c:	85 c0                	test   %eax,%eax
 804c22e:	75 7c                	jne    804c2ac <env_init+0x10d>
 804c230:	e8 6b 8b 00 00       	call   8054da0 <localhost>
 804c235:	89 45 e0             	mov    %eax,-0x20(%ebp)
 804c238:	8b 43 0c             	mov    0xc(%ebx),%eax
 804c23b:	c7 44 24 04 3a 00 00 	movl   $0x3a,0x4(%esp)
 804c242:	00 
 804c243:	89 04 24             	mov    %eax,(%esp)
 804c246:	e8 c5 d5 ff ff       	call   8049810 <strchr@plt>
 804c24b:	89 45 e4             	mov    %eax,-0x1c(%ebp)
 804c24e:	8b 45 e0             	mov    -0x20(%ebp),%eax
 804c251:	89 04 24             	mov    %eax,(%esp)
 804c254:	e8 c7 d5 ff ff       	call   8049820 <strlen@plt>
 804c259:	89 c6                	mov    %eax,%esi
 804c25b:	8b 45 e4             	mov    -0x1c(%ebp),%eax
 804c25e:	89 04 24             	mov    %eax,(%esp)
 804c261:	e8 ba d5 ff ff       	call   8049820 <strlen@plt>
 804c266:	01 f0                	add    %esi,%eax
 804c268:	83 c0 01             	add    $0x1,%eax
 804c26b:	89 04 24             	mov    %eax,(%esp)
 804c26e:	e8 4d a5 00 00       	call   80567c0 <xmalloc>
 804c273:	89 c6                	mov    %eax,%esi
 804c275:	8b 45 e4             	mov    -0x1c(%ebp),%eax
 804c278:	89 44 24 0c          	mov    %eax,0xc(%esp)
 804c27c:	8b 45 e0             	mov    -0x20(%ebp),%eax
 804c27f:	89 44 24 08          	mov    %eax,0x8(%esp)
 804c283:	c7 44 24 04 f0 ce 05 	movl   $0x805cef0,0x4(%esp)
 804c28a:	08 
 804c28b:	89 34 24             	mov    %esi,(%esp)
 804c28e:	e8 bd d7 ff ff       	call   8049a50 <sprintf@plt>
 804c293:	8b 43 0c             	mov    0xc(%ebx),%eax
 804c296:	89 04 24             	mov    %eax,(%esp)
 804c299:	e8 42 d3 ff ff       	call   80495e0 <free@plt>
 804c29e:	89 73 0c             	mov    %esi,0xc(%ebx)
 804c2a1:	8b 45 e0             	mov    -0x20(%ebp),%eax
 804c2a4:	89 04 24             	mov    %eax,(%esp)
 804c2a7:	e8 34 d3 ff ff       	call   80495e0 <free@plt>
 804c2ac:	c7 04 24 f5 ce 05 08 	movl   $0x805cef5,(%esp)
 804c2b3:	e8 ad fe ff ff       	call   804c165 <env_find>
 804c2b8:	85 c0                	test   %eax,%eax
 804c2ba:	75 31                	jne    804c2ed <env_init+0x14e>
 804c2bc:	c7 04 24 fa ce 05 08 	movl   $0x805cefa,(%esp)
 804c2c3:	e8 9d fe ff ff       	call   804c165 <env_find>
 804c2c8:	89 c3                	mov    %eax,%ebx
 804c2ca:	85 db                	test   %ebx,%ebx
 804c2cc:	74 1f                	je     804c2ed <env_init+0x14e>
 804c2ce:	8b 43 0c             	mov    0xc(%ebx),%eax
 804c2d1:	89 44 24 04          	mov    %eax,0x4(%esp)
 804c2d5:	c7 04 24 f5 ce 05 08 	movl   $0x805cef5,(%esp)
 804c2dc:	e8 2c 00 00 00       	call   804c30d <env_define>
 804c2e1:	c7 04 24 f5 ce 05 08 	movl   $0x805cef5,(%esp)
 804c2e8:	e8 2c 01 00 00       	call   804c419 <env_unexport>
 804c2ed:	c7 04 24 e2 ce 05 08 	movl   $0x805cee2,(%esp)
 804c2f4:	e8 fb 00 00 00       	call   804c3f4 <env_export>
 804c2f9:	c7 04 24 02 cf 05 08 	movl   $0x805cf02,(%esp)
 804c300:	e8 ef 00 00 00       	call   804c3f4 <env_export>
 804c305:	83 c4 2c             	add    $0x2c,%esp
 804c308:	5b                   	pop    %ebx
 804c309:	5e                   	pop    %esi
 804c30a:	5f                   	pop    %edi
 804c30b:	5d                   	pop    %ebp
 804c30c:	c3                   	ret    

0804c30d <env_define>:
 804c30d:	55                   	push   %ebp
 804c30e:	89 e5                	mov    %esp,%ebp
 804c310:	53                   	push   %ebx
 804c311:	83 ec 14             	sub    $0x14,%esp
 804c314:	8b 45 08             	mov    0x8(%ebp),%eax
 804c317:	89 04 24             	mov    %eax,(%esp)
 804c31a:	e8 46 fe ff ff       	call   804c165 <env_find>
 804c31f:	89 c3                	mov    %eax,%ebx
 804c321:	85 db                	test   %ebx,%ebx
 804c323:	74 18                	je     804c33d <env_define+0x30>
 804c325:	8b 43 08             	mov    0x8(%ebx),%eax
 804c328:	89 04 24             	mov    %eax,(%esp)
 804c32b:	e8 b0 d2 ff ff       	call   80495e0 <free@plt>
 804c330:	8b 43 0c             	mov    0xc(%ebx),%eax
 804c333:	89 04 24             	mov    %eax,(%esp)
 804c336:	e8 a5 d2 ff ff       	call   80495e0 <free@plt>
 804c33b:	eb 2d                	jmp    804c36a <env_define+0x5d>
 804c33d:	c7 04 24 18 00 00 00 	movl   $0x18,(%esp)
 804c344:	e8 77 a4 00 00       	call   80567c0 <xmalloc>
 804c349:	89 c3                	mov    %eax,%ebx
 804c34b:	a1 88 56 06 08       	mov    0x8065688,%eax
 804c350:	89 03                	mov    %eax,(%ebx)
 804c352:	89 1d 88 56 06 08    	mov    %ebx,0x8065688
 804c358:	c7 43 04 88 56 06 08 	movl   $0x8065688,0x4(%ebx)
 804c35f:	8b 03                	mov    (%ebx),%eax
 804c361:	85 c0                	test   %eax,%eax
 804c363:	74 05                	je     804c36a <env_define+0x5d>
 804c365:	8b 03                	mov    (%ebx),%eax
 804c367:	89 58 04             	mov    %ebx,0x4(%eax)
 804c36a:	8b 45 08             	mov    0x8(%ebp),%eax
 804c36d:	89 04 24             	mov    %eax,(%esp)
 804c370:	e8 6b 45 00 00       	call   80508e0 <opt_welldefined>
 804c375:	89 43 14             	mov    %eax,0x14(%ebx)
 804c378:	c7 43 10 01 00 00 00 	movl   $0x1,0x10(%ebx)
 804c37f:	8b 45 08             	mov    0x8(%ebp),%eax
 804c382:	89 04 24             	mov    %eax,(%esp)
 804c385:	e8 66 d2 ff ff       	call   80495f0 <strdup@plt>
 804c38a:	89 43 08             	mov    %eax,0x8(%ebx)
 804c38d:	8b 45 0c             	mov    0xc(%ebp),%eax
 804c390:	89 04 24             	mov    %eax,(%esp)
 804c393:	e8 58 d2 ff ff       	call   80495f0 <strdup@plt>
 804c398:	89 43 0c             	mov    %eax,0xc(%ebx)
 804c39b:	89 d8                	mov    %ebx,%eax
 804c39d:	83 c4 14             	add    $0x14,%esp
 804c3a0:	5b                   	pop    %ebx
 804c3a1:	5d                   	pop    %ebp
 804c3a2:	c3                   	ret    

0804c3a3 <env_undefine>:
 804c3a3:	55                   	push   %ebp
 804c3a4:	89 e5                	mov    %esp,%ebp
 804c3a6:	53                   	push   %ebx
 804c3a7:	83 ec 14             	sub    $0x14,%esp
 804c3aa:	8b 45 08             	mov    0x8(%ebp),%eax
 804c3ad:	89 04 24             	mov    %eax,(%esp)
 804c3b0:	e8 b0 fd ff ff       	call   804c165 <env_find>
 804c3b5:	89 c3                	mov    %eax,%ebx
 804c3b7:	85 db                	test   %ebx,%ebx
 804c3b9:	74 33                	je     804c3ee <env_undefine+0x4b>
 804c3bb:	8b 43 04             	mov    0x4(%ebx),%eax
 804c3be:	8b 13                	mov    (%ebx),%edx
 804c3c0:	89 10                	mov    %edx,(%eax)
 804c3c2:	8b 03                	mov    (%ebx),%eax
 804c3c4:	85 c0                	test   %eax,%eax
 804c3c6:	74 08                	je     804c3d0 <env_undefine+0x2d>
 804c3c8:	8b 03                	mov    (%ebx),%eax
 804c3ca:	8b 53 04             	mov    0x4(%ebx),%edx
 804c3cd:	89 50 04             	mov    %edx,0x4(%eax)
 804c3d0:	8b 43 08             	mov    0x8(%ebx),%eax
 804c3d3:	89 04 24             	mov    %eax,(%esp)
 804c3d6:	e8 05 d2 ff ff       	call   80495e0 <free@plt>
 804c3db:	8b 43 0c             	mov    0xc(%ebx),%eax
 804c3de:	89 04 24             	mov    %eax,(%esp)
 804c3e1:	e8 fa d1 ff ff       	call   80495e0 <free@plt>
 804c3e6:	89 1c 24             	mov    %ebx,(%esp)
 804c3e9:	e8 f2 d1 ff ff       	call   80495e0 <free@plt>
 804c3ee:	83 c4 14             	add    $0x14,%esp
 804c3f1:	5b                   	pop    %ebx
 804c3f2:	5d                   	pop    %ebp
 804c3f3:	c3                   	ret    

0804c3f4 <env_export>:
 804c3f4:	55                   	push   %ebp
 804c3f5:	89 e5                	mov    %esp,%ebp
 804c3f7:	53                   	push   %ebx
 804c3f8:	83 ec 14             	sub    $0x14,%esp
 804c3fb:	8b 45 08             	mov    0x8(%ebp),%eax
 804c3fe:	89 04 24             	mov    %eax,(%esp)
 804c401:	e8 5f fd ff ff       	call   804c165 <env_find>
 804c406:	89 c3                	mov    %eax,%ebx
 804c408:	85 db                	test   %ebx,%ebx
 804c40a:	74 07                	je     804c413 <env_export+0x1f>
 804c40c:	c7 43 10 01 00 00 00 	movl   $0x1,0x10(%ebx)
 804c413:	83 c4 14             	add    $0x14,%esp
 804c416:	5b                   	pop    %ebx
 804c417:	5d                   	pop    %ebp
 804c418:	c3                   	ret    

0804c419 <env_unexport>:
 804c419:	55                   	push   %ebp
 804c41a:	89 e5                	mov    %esp,%ebp
 804c41c:	53                   	push   %ebx
 804c41d:	83 ec 14             	sub    $0x14,%esp
 804c420:	8b 45 08             	mov    0x8(%ebp),%eax
 804c423:	89 04 24             	mov    %eax,(%esp)
 804c426:	e8 3a fd ff ff       	call   804c165 <env_find>
 804c42b:	89 c3                	mov    %eax,%ebx
 804c42d:	85 db                	test   %ebx,%ebx
 804c42f:	74 07                	je     804c438 <env_unexport+0x1f>
 804c431:	c7 43 10 00 00 00 00 	movl   $0x0,0x10(%ebx)
 804c438:	83 c4 14             	add    $0x14,%esp
 804c43b:	5b                   	pop    %ebx
 804c43c:	5d                   	pop    %ebp
 804c43d:	c3                   	ret    

0804c43e <env_send>:
 804c43e:	55                   	push   %ebp
 804c43f:	89 e5                	mov    %esp,%ebp
 804c441:	53                   	push   %ebx
 804c442:	83 ec 14             	sub    $0x14,%esp
 804c445:	0f b6 05 47 54 06 08 	movzbl 0x8065447,%eax
 804c44c:	0f be c0             	movsbl %al,%eax
 804c44f:	83 e0 01             	and    $0x1,%eax
 804c452:	85 c0                	test   %eax,%eax
 804c454:	75 1e                	jne    804c474 <env_send+0x36>
 804c456:	a1 a4 44 06 08       	mov    0x80644a4,%eax
 804c45b:	8b 55 08             	mov    0x8(%ebp),%edx
 804c45e:	89 54 24 08          	mov    %edx,0x8(%esp)
 804c462:	c7 44 24 04 0c cf 05 	movl   $0x805cf0c,0x4(%esp)
 804c469:	08 
 804c46a:	89 04 24             	mov    %eax,(%esp)
 804c46d:	e8 de d3 ff ff       	call   8049850 <fprintf@plt>
 804c472:	eb 4b                	jmp    804c4bf <env_send+0x81>
 804c474:	8b 45 08             	mov    0x8(%ebp),%eax
 804c477:	89 04 24             	mov    %eax,(%esp)
 804c47a:	e8 e6 fc ff ff       	call   804c165 <env_find>
 804c47f:	89 c3                	mov    %eax,%ebx
 804c481:	85 db                	test   %ebx,%ebx
 804c483:	75 1e                	jne    804c4a3 <env_send+0x65>
 804c485:	a1 a4 44 06 08       	mov    0x80644a4,%eax
 804c48a:	8b 55 08             	mov    0x8(%ebp),%edx
 804c48d:	89 54 24 08          	mov    %edx,0x8(%esp)
 804c491:	c7 44 24 04 44 cf 05 	movl   $0x805cf44,0x4(%esp)
 804c498:	08 
 804c499:	89 04 24             	mov    %eax,(%esp)
 804c49c:	e8 af d3 ff ff       	call   8049850 <fprintf@plt>
 804c4a1:	eb 1c                	jmp    804c4bf <env_send+0x81>
 804c4a3:	e8 18 44 00 00       	call   80508c0 <env_opt_start_info>
 804c4a8:	8b 43 08             	mov    0x8(%ebx),%eax
 804c4ab:	89 04 24             	mov    %eax,(%esp)
 804c4ae:	e8 bd 44 00 00       	call   8050970 <env_opt_add>
 804c4b3:	c7 04 24 00 00 00 00 	movl   $0x0,(%esp)
 804c4ba:	e8 a1 46 00 00       	call   8050b60 <env_opt_end>
 804c4bf:	83 c4 14             	add    $0x14,%esp
 804c4c2:	5b                   	pop    %ebx
 804c4c3:	5d                   	pop    %ebp
 804c4c4:	c3                   	ret    

0804c4c5 <env_list>:
 804c4c5:	55                   	push   %ebp
 804c4c6:	89 e5                	mov    %esp,%ebp
 804c4c8:	53                   	push   %ebx
 804c4c9:	83 ec 14             	sub    $0x14,%esp
 804c4cc:	8b 1d 88 56 06 08    	mov    0x8065688,%ebx
 804c4d2:	eb 33                	jmp    804c507 <env_list+0x42>
 804c4d4:	8b 4b 0c             	mov    0xc(%ebx),%ecx
 804c4d7:	8b 53 08             	mov    0x8(%ebx),%edx
 804c4da:	8b 43 10             	mov    0x10(%ebx),%eax
 804c4dd:	85 c0                	test   %eax,%eax
 804c4df:	74 07                	je     804c4e8 <env_list+0x23>
 804c4e1:	b8 2a 00 00 00       	mov    $0x2a,%eax
 804c4e6:	eb 05                	jmp    804c4ed <env_list+0x28>
 804c4e8:	b8 20 00 00 00       	mov    $0x20,%eax
 804c4ed:	89 4c 24 0c          	mov    %ecx,0xc(%esp)
 804c4f1:	89 54 24 08          	mov    %edx,0x8(%esp)
 804c4f5:	89 44 24 04          	mov    %eax,0x4(%esp)
 804c4f9:	c7 04 24 6c cf 05 08 	movl   $0x805cf6c,(%esp)
 804c500:	e8 6b d0 ff ff       	call   8049570 <printf@plt>
 804c505:	8b 1b                	mov    (%ebx),%ebx
 804c507:	85 db                	test   %ebx,%ebx
 804c509:	75 c9                	jne    804c4d4 <env_list+0xf>
 804c50b:	83 c4 14             	add    $0x14,%esp
 804c50e:	5b                   	pop    %ebx
 804c50f:	5d                   	pop    %ebp
 804c510:	c3                   	ret    

0804c511 <env_default>:
 804c511:	55                   	push   %ebp
 804c512:	89 e5                	mov    %esp,%ebp
 804c514:	83 7d 08 00          	cmpl   $0x0,0x8(%ebp)
 804c518:	74 11                	je     804c52b <env_default+0x1a>
 804c51a:	c7 05 dc 47 06 08 88 	movl   $0x8065688,0x80647dc
 804c521:	56 06 08 
 804c524:	b8 00 00 00 00       	mov    $0x0,%eax
 804c529:	eb 48                	jmp    804c573 <env_default+0x62>
 804c52b:	a1 dc 47 06 08       	mov    0x80647dc,%eax
 804c530:	85 c0                	test   %eax,%eax
 804c532:	74 3a                	je     804c56e <env_default+0x5d>
 804c534:	eb 23                	jmp    804c559 <env_default+0x48>
 804c536:	a1 dc 47 06 08       	mov    0x80647dc,%eax
 804c53b:	8b 40 10             	mov    0x10(%eax),%eax
 804c53e:	85 c0                	test   %eax,%eax
 804c540:	74 17                	je     804c559 <env_default+0x48>
 804c542:	a1 dc 47 06 08       	mov    0x80647dc,%eax
 804c547:	8b 40 14             	mov    0x14(%eax),%eax
 804c54a:	3b 45 0c             	cmp    0xc(%ebp),%eax
 804c54d:	75 0a                	jne    804c559 <env_default+0x48>
 804c54f:	a1 dc 47 06 08       	mov    0x80647dc,%eax
 804c554:	8b 40 08             	mov    0x8(%eax),%eax
 804c557:	eb 1a                	jmp    804c573 <env_default+0x62>
 804c559:	a1 dc 47 06 08       	mov    0x80647dc,%eax
 804c55e:	8b 00                	mov    (%eax),%eax
 804c560:	a3 dc 47 06 08       	mov    %eax,0x80647dc
 804c565:	a1 dc 47 06 08       	mov    0x80647dc,%eax
 804c56a:	85 c0                	test   %eax,%eax
 804c56c:	75 c8                	jne    804c536 <env_default+0x25>
 804c56e:	b8 00 00 00 00       	mov    $0x0,%eax
 804c573:	5d                   	pop    %ebp
 804c574:	c3                   	ret    

0804c575 <env_getvalue>:
 804c575:	55                   	push   %ebp
 804c576:	89 e5                	mov    %esp,%ebp
 804c578:	53                   	push   %ebx
 804c579:	83 ec 14             	sub    $0x14,%esp
 804c57c:	8b 45 08             	mov    0x8(%ebp),%eax
 804c57f:	89 04 24             	mov    %eax,(%esp)
 804c582:	e8 de fb ff ff       	call   804c165 <env_find>
 804c587:	89 c3                	mov    %eax,%ebx
 804c589:	85 db                	test   %ebx,%ebx
 804c58b:	74 05                	je     804c592 <env_getvalue+0x1d>
 804c58d:	8b 43 0c             	mov    0xc(%ebx),%eax
 804c590:	eb 05                	jmp    804c597 <env_getvalue+0x22>
 804c592:	b8 00 00 00 00       	mov    $0x0,%eax
 804c597:	83 c4 14             	add    $0x14,%esp
 804c59a:	5b                   	pop    %ebx
 804c59b:	5d                   	pop    %ebp
 804c59c:	c3                   	ret    

0804c59d <status>:
 804c59d:	55                   	push   %ebp
 804c59e:	89 e5                	mov    %esp,%ebp
 804c5a0:	83 ec 28             	sub    $0x28,%esp
 804c5a3:	a1 c4 b7 06 08       	mov    0x806b7c4,%eax
 804c5a8:	85 c0                	test   %eax,%eax
 804c5aa:	0f 84 61 01 00 00    	je     804c711 <status+0x174>
 804c5b0:	a1 00 45 06 08       	mov    0x8064500,%eax
 804c5b5:	89 44 24 04          	mov    %eax,0x4(%esp)
 804c5b9:	c7 04 24 79 cf 05 08 	movl   $0x805cf79,(%esp)
 804c5c0:	e8 ab cf ff ff       	call   8049570 <printf@plt>
 804c5c5:	83 7d 08 01          	cmpl   $0x1,0x8(%ebp)
 804c5c9:	7e 20                	jle    804c5eb <status+0x4e>
 804c5cb:	8b 45 0c             	mov    0xc(%ebp),%eax
 804c5ce:	83 c0 04             	add    $0x4,%eax
 804c5d1:	8b 00                	mov    (%eax),%eax
 804c5d3:	c7 44 24 04 8b cf 05 	movl   $0x805cf8b,0x4(%esp)
 804c5da:	08 
 804c5db:	89 04 24             	mov    %eax,(%esp)
 804c5de:	e8 4d cf ff ff       	call   8049530 <strcmp@plt>
 804c5e3:	85 c0                	test   %eax,%eax
 804c5e5:	0f 84 24 01 00 00    	je     804c70f <status+0x172>
 804c5eb:	e8 e0 64 00 00       	call   8052ad0 <getconnmode>
 804c5f0:	89 45 f4             	mov    %eax,-0xc(%ebp)
 804c5f3:	0f b6 05 42 54 06 08 	movzbl 0x8065442,%eax
 804c5fa:	0f be c0             	movsbl %al,%eax
 804c5fd:	83 e0 02             	and    $0x2,%eax
 804c600:	85 c0                	test   %eax,%eax
 804c602:	74 5f                	je     804c663 <status+0xc6>
 804c604:	c7 04 24 94 cf 05 08 	movl   $0x805cf94,(%esp)
 804c60b:	e8 90 d1 ff ff       	call   80497a0 <puts@plt>
 804c610:	8b 45 f4             	mov    -0xc(%ebp),%eax
 804c613:	83 e0 01             	and    $0x1,%eax
 804c616:	85 c0                	test   %eax,%eax
 804c618:	74 07                	je     804c621 <status+0x84>
 804c61a:	b8 b3 cf 05 08       	mov    $0x805cfb3,%eax
 804c61f:	eb 05                	jmp    804c626 <status+0x89>
 804c621:	b8 b9 cf 05 08       	mov    $0x805cfb9,%eax
 804c626:	89 44 24 04          	mov    %eax,0x4(%esp)
 804c62a:	c7 04 24 bc cf 05 08 	movl   $0x805cfbc,(%esp)
 804c631:	e8 3a cf ff ff       	call   8049570 <printf@plt>
 804c636:	8b 45 f4             	mov    -0xc(%ebp),%eax
 804c639:	83 e0 02             	and    $0x2,%eax
 804c63c:	85 c0                	test   %eax,%eax
 804c63e:	74 07                	je     804c647 <status+0xaa>
 804c640:	b8 b3 cf 05 08       	mov    $0x805cfb3,%eax
 804c645:	eb 05                	jmp    804c64c <status+0xaf>
 804c647:	b8 b9 cf 05 08       	mov    $0x805cfb9,%eax
 804c64c:	89 44 24 04          	mov    %eax,0x4(%esp)
 804c650:	c7 04 24 cd cf 05 08 	movl   $0x805cfcd,(%esp)
 804c657:	e8 14 cf ff ff       	call   8049570 <printf@plt>
 804c65c:	e8 ff 36 00 00       	call   804fd60 <slcstate>
 804c661:	eb 49                	jmp    804c6ac <status+0x10f>
 804c663:	a1 a8 41 06 08       	mov    0x80641a8,%eax
 804c668:	85 c0                	test   %eax,%eax
 804c66a:	74 1f                	je     804c68b <status+0xee>
 804c66c:	0f b6 05 23 54 06 08 	movzbl 0x8065423,%eax
 804c673:	0f be c0             	movsbl %al,%eax
 804c676:	83 e0 08             	and    $0x8,%eax
 804c679:	85 c0                	test   %eax,%eax
 804c67b:	75 0e                	jne    804c68b <status+0xee>
 804c67d:	c7 04 24 e8 cf 05 08 	movl   $0x805cfe8,(%esp)
 804c684:	e8 17 d1 ff ff       	call   80497a0 <puts@plt>
 804c689:	eb 21                	jmp    804c6ac <status+0x10f>
 804c68b:	c7 04 24 08 d0 05 08 	movl   $0x805d008,(%esp)
 804c692:	e8 09 d1 ff ff       	call   80497a0 <puts@plt>
 804c697:	a1 64 b9 06 08       	mov    0x806b964,%eax
 804c69c:	85 c0                	test   %eax,%eax
 804c69e:	74 0c                	je     804c6ac <status+0x10f>
 804c6a0:	c7 04 24 2b d0 05 08 	movl   $0x805d02b,(%esp)
 804c6a7:	e8 f4 d0 ff ff       	call   80497a0 <puts@plt>
 804c6ac:	8b 45 f4             	mov    -0xc(%ebp),%eax
 804c6af:	25 00 02 00 00       	and    $0x200,%eax
 804c6b4:	85 c0                	test   %eax,%eax
 804c6b6:	74 07                	je     804c6bf <status+0x122>
 804c6b8:	b8 b3 cf 05 08       	mov    $0x805cfb3,%eax
 804c6bd:	eb 05                	jmp    804c6c4 <status+0x127>
 804c6bf:	b8 44 d0 05 08       	mov    $0x805d044,%eax
 804c6c4:	89 44 24 04          	mov    %eax,0x4(%esp)
 804c6c8:	c7 04 24 4b d0 05 08 	movl   $0x805d04b,(%esp)
 804c6cf:	e8 9c ce ff ff       	call   8049570 <printf@plt>
 804c6d4:	0f b6 05 41 54 06 08 	movzbl 0x8065441,%eax
 804c6db:	0f be c0             	movsbl %al,%eax
 804c6de:	83 e0 02             	and    $0x2,%eax
 804c6e1:	85 c0                	test   %eax,%eax
 804c6e3:	74 2a                	je     804c70f <status+0x172>
 804c6e5:	8b 45 f4             	mov    -0xc(%ebp),%eax
 804c6e8:	25 00 01 00 00       	and    $0x100,%eax
 804c6ed:	85 c0                	test   %eax,%eax
 804c6ef:	74 07                	je     804c6f8 <status+0x15b>
 804c6f1:	b8 b3 cf 05 08       	mov    $0x805cfb3,%eax
 804c6f6:	eb 05                	jmp    804c6fd <status+0x160>
 804c6f8:	b8 b9 cf 05 08       	mov    $0x805cfb9,%eax
 804c6fd:	89 44 24 04          	mov    %eax,0x4(%esp)
 804c701:	c7 04 24 5e d0 05 08 	movl   $0x805d05e,(%esp)
 804c708:	e8 63 ce ff ff       	call   8049570 <printf@plt>
 804c70d:	eb 0e                	jmp    804c71d <status+0x180>
 804c70f:	eb 0c                	jmp    804c71d <status+0x180>
 804c711:	c7 04 24 6f d0 05 08 	movl   $0x805d06f,(%esp)
 804c718:	e8 83 d0 ff ff       	call   80497a0 <puts@plt>
 804c71d:	0f b6 05 70 ba 06 08 	movzbl 0x806ba70,%eax
 804c724:	0f b6 c0             	movzbl %al,%eax
 804c727:	89 04 24             	mov    %eax,(%esp)
 804c72a:	e8 5e d9 ff ff       	call   804a08d <control>
 804c72f:	89 44 24 04          	mov    %eax,0x4(%esp)
 804c733:	c7 04 24 f2 ca 05 08 	movl   $0x805caf2,(%esp)
 804c73a:	e8 31 ce ff ff       	call   8049570 <printf@plt>
 804c73f:	a1 e0 44 06 08       	mov    0x80644e0,%eax
 804c744:	89 04 24             	mov    %eax,(%esp)
 804c747:	e8 44 ce ff ff       	call   8049590 <fflush@plt>
 804c74c:	b8 01 00 00 00       	mov    $0x1,%eax
 804c751:	c9                   	leave  
 804c752:	c3                   	ret    

0804c753 <tn>:
 804c753:	55                   	push   %ebp
 804c754:	89 e5                	mov    %esp,%ebp
 804c756:	57                   	push   %edi
 804c757:	56                   	push   %esi
 804c758:	53                   	push   %ebx
 804c759:	81 ec 8c 01 00 00    	sub    $0x18c,%esp
 804c75f:	8b 45 0c             	mov    0xc(%ebp),%eax
 804c762:	89 85 84 fe ff ff    	mov    %eax,-0x17c(%ebp)
 804c768:	65 a1 14 00 00 00    	mov    %gs:0x14,%eax
 804c76e:	89 45 e4             	mov    %eax,-0x1c(%ebp)
 804c771:	31 c0                	xor    %eax,%eax
 804c773:	c7 85 8c fe ff ff 01 	movl   $0x1,-0x174(%ebp)
 804c77a:	00 00 00 
 804c77d:	c7 85 9c fe ff ff 00 	movl   $0x0,-0x164(%ebp)
 804c784:	00 00 00 
 804c787:	c7 85 a0 fe ff ff 00 	movl   $0x0,-0x160(%ebp)
 804c78e:	00 00 00 
 804c791:	c7 85 a4 fe ff ff 00 	movl   $0x0,-0x15c(%ebp)
 804c798:	00 00 00 
 804c79b:	c7 44 24 08 20 00 00 	movl   $0x20,0x8(%esp)
 804c7a2:	00 
 804c7a3:	c7 44 24 04 00 00 00 	movl   $0x0,0x4(%esp)
 804c7aa:	00 
 804c7ab:	8d 85 c4 fe ff ff    	lea    -0x13c(%ebp),%eax
 804c7b1:	89 04 24             	mov    %eax,(%esp)
 804c7b4:	e8 e7 d0 ff ff       	call   80498a0 <memset@plt>
 804c7b9:	a1 c4 b7 06 08       	mov    0x806b7c4,%eax
 804c7be:	85 c0                	test   %eax,%eax
 804c7c0:	74 1f                	je     804c7e1 <tn+0x8e>
 804c7c2:	a1 00 45 06 08       	mov    0x8064500,%eax
 804c7c7:	89 44 24 04          	mov    %eax,0x4(%esp)
 804c7cb:	c7 04 24 7e d0 05 08 	movl   $0x805d07e,(%esp)
 804c7d2:	e8 99 cd ff ff       	call   8049570 <printf@plt>
 804c7d7:	b8 00 00 00 00       	mov    $0x0,%eax
 804c7dc:	e9 56 08 00 00       	jmp    804d037 <tn+0x8e4>
 804c7e1:	83 7d 08 01          	cmpl   $0x1,0x8(%ebp)
 804c7e5:	0f 8f 86 00 00 00    	jg     804c871 <tn+0x11e>
 804c7eb:	c7 05 60 45 06 08 6f 	movl   $0x6e65706f,0x8064560
 804c7f2:	70 65 6e 
 804c7f5:	66 c7 05 64 45 06 08 	movw   $0x20,0x8064564
 804c7fc:	20 00 
 804c7fe:	c7 04 24 98 d0 05 08 	movl   $0x805d098,(%esp)
 804c805:	e8 66 cd ff ff       	call   8049570 <printf@plt>
 804c80a:	8b 35 c4 44 06 08    	mov    0x80644c4,%esi
 804c810:	c7 04 24 60 45 06 08 	movl   $0x8064560,(%esp)
 804c817:	e8 04 d0 ff ff       	call   8049820 <strlen@plt>
 804c81c:	ba 00 01 00 00       	mov    $0x100,%edx
 804c821:	29 c2                	sub    %eax,%edx
 804c823:	89 d0                	mov    %edx,%eax
 804c825:	89 c3                	mov    %eax,%ebx
 804c827:	c7 04 24 60 45 06 08 	movl   $0x8064560,(%esp)
 804c82e:	e8 ed cf ff ff       	call   8049820 <strlen@plt>
 804c833:	05 60 45 06 08       	add    $0x8064560,%eax
 804c838:	89 74 24 08          	mov    %esi,0x8(%esp)
 804c83c:	89 5c 24 04          	mov    %ebx,0x4(%esp)
 804c840:	89 04 24             	mov    %eax,(%esp)
 804c843:	e8 d8 cd ff ff       	call   8049620 <fgets@plt>
 804c848:	85 c0                	test   %eax,%eax
 804c84a:	74 19                	je     804c865 <tn+0x112>
 804c84c:	e8 8c d6 ff ff       	call   8049edd <makeargv>
 804c851:	a1 60 47 06 08       	mov    0x8064760,%eax
 804c856:	89 45 08             	mov    %eax,0x8(%ebp)
 804c859:	c7 85 84 fe ff ff 80 	movl   $0x8064780,-0x17c(%ebp)
 804c860:	47 06 08 
 804c863:	eb 0c                	jmp    804c871 <tn+0x11e>
 804c865:	c7 04 24 a0 d0 05 08 	movl   $0x805d0a0,(%esp)
 804c86c:	e8 2f cf ff ff       	call   80497a0 <puts@plt>
 804c871:	8b 85 84 fe ff ff    	mov    -0x17c(%ebp),%eax
 804c877:	8b 00                	mov    (%eax),%eax
 804c879:	89 85 b0 fe ff ff    	mov    %eax,-0x150(%ebp)
 804c87f:	83 6d 08 01          	subl   $0x1,0x8(%ebp)
 804c883:	83 85 84 fe ff ff 04 	addl   $0x4,-0x17c(%ebp)
 804c88a:	e9 9d 01 00 00       	jmp    804ca2c <tn+0x2d9>
 804c88f:	8b 85 84 fe ff ff    	mov    -0x17c(%ebp),%eax
 804c895:	8b 00                	mov    (%eax),%eax
 804c897:	c7 44 24 04 6e b7 05 	movl   $0x805b76e,0x4(%esp)
 804c89e:	08 
 804c89f:	89 04 24             	mov    %eax,(%esp)
 804c8a2:	e8 89 cc ff ff       	call   8049530 <strcmp@plt>
 804c8a7:	85 c0                	test   %eax,%eax
 804c8a9:	0f 84 5d 01 00 00    	je     804ca0c <tn+0x2b9>
 804c8af:	8b 85 84 fe ff ff    	mov    -0x17c(%ebp),%eax
 804c8b5:	8b 00                	mov    (%eax),%eax
 804c8b7:	c7 44 24 04 57 b7 05 	movl   $0x805b757,0x4(%esp)
 804c8be:	08 
 804c8bf:	89 04 24             	mov    %eax,(%esp)
 804c8c2:	e8 69 83 00 00       	call   8054c30 <isprefix>
 804c8c7:	85 c0                	test   %eax,%eax
 804c8c9:	0f 85 3d 01 00 00    	jne    804ca0c <tn+0x2b9>
 804c8cf:	8b 85 84 fe ff ff    	mov    -0x17c(%ebp),%eax
 804c8d5:	8b 00                	mov    (%eax),%eax
 804c8d7:	c7 44 24 04 c2 d0 05 	movl   $0x805d0c2,0x4(%esp)
 804c8de:	08 
 804c8df:	89 04 24             	mov    %eax,(%esp)
 804c8e2:	e8 49 cc ff ff       	call   8049530 <strcmp@plt>
 804c8e7:	85 c0                	test   %eax,%eax
 804c8e9:	75 36                	jne    804c921 <tn+0x1ce>
 804c8eb:	83 6d 08 01          	subl   $0x1,0x8(%ebp)
 804c8ef:	83 85 84 fe ff ff 04 	addl   $0x4,-0x17c(%ebp)
 804c8f6:	83 7d 08 00          	cmpl   $0x0,0x8(%ebp)
 804c8fa:	75 05                	jne    804c901 <tn+0x1ae>
 804c8fc:	e9 0b 01 00 00       	jmp    804ca0c <tn+0x2b9>
 804c901:	8b 85 84 fe ff ff    	mov    -0x17c(%ebp),%eax
 804c907:	8d 50 04             	lea    0x4(%eax),%edx
 804c90a:	89 95 84 fe ff ff    	mov    %edx,-0x17c(%ebp)
 804c910:	8b 00                	mov    (%eax),%eax
 804c912:	89 85 a4 fe ff ff    	mov    %eax,-0x15c(%ebp)
 804c918:	83 6d 08 01          	subl   $0x1,0x8(%ebp)
 804c91c:	e9 0b 01 00 00       	jmp    804ca2c <tn+0x2d9>
 804c921:	8b 85 84 fe ff ff    	mov    -0x17c(%ebp),%eax
 804c927:	8b 00                	mov    (%eax),%eax
 804c929:	c7 44 24 04 c5 d0 05 	movl   $0x805d0c5,0x4(%esp)
 804c930:	08 
 804c931:	89 04 24             	mov    %eax,(%esp)
 804c934:	e8 f7 cb ff ff       	call   8049530 <strcmp@plt>
 804c939:	85 c0                	test   %eax,%eax
 804c93b:	75 1a                	jne    804c957 <tn+0x204>
 804c93d:	83 6d 08 01          	subl   $0x1,0x8(%ebp)
 804c941:	83 85 84 fe ff ff 04 	addl   $0x4,-0x17c(%ebp)
 804c948:	c7 05 10 52 06 08 01 	movl   $0x1,0x8065210
 804c94f:	00 00 00 
 804c952:	e9 d5 00 00 00       	jmp    804ca2c <tn+0x2d9>
 804c957:	8b 85 84 fe ff ff    	mov    -0x17c(%ebp),%eax
 804c95d:	8b 00                	mov    (%eax),%eax
 804c95f:	c7 44 24 04 c8 d0 05 	movl   $0x805d0c8,0x4(%esp)
 804c966:	08 
 804c967:	89 04 24             	mov    %eax,(%esp)
 804c96a:	e8 c1 cb ff ff       	call   8049530 <strcmp@plt>
 804c96f:	85 c0                	test   %eax,%eax
 804c971:	75 1a                	jne    804c98d <tn+0x23a>
 804c973:	83 6d 08 01          	subl   $0x1,0x8(%ebp)
 804c977:	83 85 84 fe ff ff 04 	addl   $0x4,-0x17c(%ebp)
 804c97e:	c7 85 c8 fe ff ff 0a 	movl   $0xa,-0x138(%ebp)
 804c985:	00 00 00 
 804c988:	e9 9f 00 00 00       	jmp    804ca2c <tn+0x2d9>
 804c98d:	8b 85 84 fe ff ff    	mov    -0x17c(%ebp),%eax
 804c993:	8b 00                	mov    (%eax),%eax
 804c995:	c7 44 24 04 cb d0 05 	movl   $0x805d0cb,0x4(%esp)
 804c99c:	08 
 804c99d:	89 04 24             	mov    %eax,(%esp)
 804c9a0:	e8 8b cb ff ff       	call   8049530 <strcmp@plt>
 804c9a5:	85 c0                	test   %eax,%eax
 804c9a7:	75 17                	jne    804c9c0 <tn+0x26d>
 804c9a9:	83 6d 08 01          	subl   $0x1,0x8(%ebp)
 804c9ad:	83 85 84 fe ff ff 04 	addl   $0x4,-0x17c(%ebp)
 804c9b4:	c7 85 c8 fe ff ff 02 	movl   $0x2,-0x138(%ebp)
 804c9bb:	00 00 00 
 804c9be:	eb 6c                	jmp    804ca2c <tn+0x2d9>
 804c9c0:	83 bd 9c fe ff ff 00 	cmpl   $0x0,-0x164(%ebp)
 804c9c7:	75 1d                	jne    804c9e6 <tn+0x293>
 804c9c9:	8b 85 84 fe ff ff    	mov    -0x17c(%ebp),%eax
 804c9cf:	8d 50 04             	lea    0x4(%eax),%edx
 804c9d2:	89 95 84 fe ff ff    	mov    %edx,-0x17c(%ebp)
 804c9d8:	8b 00                	mov    (%eax),%eax
 804c9da:	89 85 9c fe ff ff    	mov    %eax,-0x164(%ebp)
 804c9e0:	83 6d 08 01          	subl   $0x1,0x8(%ebp)
 804c9e4:	eb 46                	jmp    804ca2c <tn+0x2d9>
 804c9e6:	83 bd a0 fe ff ff 00 	cmpl   $0x0,-0x160(%ebp)
 804c9ed:	75 1d                	jne    804ca0c <tn+0x2b9>
 804c9ef:	8b 85 84 fe ff ff    	mov    -0x17c(%ebp),%eax
 804c9f5:	8d 50 04             	lea    0x4(%eax),%edx
 804c9f8:	89 95 84 fe ff ff    	mov    %edx,-0x17c(%ebp)
 804c9fe:	8b 00                	mov    (%eax),%eax
 804ca00:	89 85 a0 fe ff ff    	mov    %eax,-0x160(%ebp)
 804ca06:	83 6d 08 01          	subl   $0x1,0x8(%ebp)
 804ca0a:	eb 20                	jmp    804ca2c <tn+0x2d9>
 804ca0c:	8b 85 b0 fe ff ff    	mov    -0x150(%ebp),%eax
 804ca12:	89 44 24 04          	mov    %eax,0x4(%esp)
 804ca16:	c7 04 24 d0 d0 05 08 	movl   $0x805d0d0,(%esp)
 804ca1d:	e8 4e cb ff ff       	call   8049570 <printf@plt>
 804ca22:	b8 00 00 00 00       	mov    $0x0,%eax
 804ca27:	e9 0b 06 00 00       	jmp    804d037 <tn+0x8e4>
 804ca2c:	83 7d 08 00          	cmpl   $0x0,0x8(%ebp)
 804ca30:	0f 85 59 fe ff ff    	jne    804c88f <tn+0x13c>
 804ca36:	83 bd 9c fe ff ff 00 	cmpl   $0x0,-0x164(%ebp)
 804ca3d:	75 02                	jne    804ca41 <tn+0x2ee>
 804ca3f:	eb cb                	jmp    804ca0c <tn+0x2b9>
 804ca41:	83 bd a0 fe ff ff 00 	cmpl   $0x0,-0x160(%ebp)
 804ca48:	75 19                	jne    804ca63 <tn+0x310>
 804ca4a:	c7 85 a0 fe ff ff 05 	movl   $0x805d105,-0x160(%ebp)
 804ca51:	d1 05 08 
 804ca54:	c7 05 5c ba 06 08 01 	movl   $0x1,0x806ba5c
 804ca5b:	00 00 00 
 804ca5e:	e9 48 01 00 00       	jmp    804cbab <tn+0x458>
 804ca63:	8b 85 a0 fe ff ff    	mov    -0x160(%ebp),%eax
 804ca69:	0f b6 00             	movzbl (%eax),%eax
 804ca6c:	3c 2d                	cmp    $0x2d,%al
 804ca6e:	75 13                	jne    804ca83 <tn+0x330>
 804ca70:	83 85 a0 fe ff ff 01 	addl   $0x1,-0x160(%ebp)
 804ca77:	c7 05 5c ba 06 08 01 	movl   $0x1,0x806ba5c
 804ca7e:	00 00 00 
 804ca81:	eb 0a                	jmp    804ca8d <tn+0x33a>
 804ca83:	c7 05 5c ba 06 08 00 	movl   $0x0,0x806ba5c
 804ca8a:	00 00 00 
 804ca8d:	8b 85 a0 fe ff ff    	mov    -0x160(%ebp),%eax
 804ca93:	0f b6 00             	movzbl (%eax),%eax
 804ca96:	3c 2f                	cmp    $0x2f,%al
 804ca98:	0f 8e 0d 01 00 00    	jle    804cbab <tn+0x458>
 804ca9e:	8b 85 a0 fe ff ff    	mov    -0x160(%ebp),%eax
 804caa4:	0f b6 00             	movzbl (%eax),%eax
 804caa7:	3c 39                	cmp    $0x39,%al
 804caa9:	0f 8f fc 00 00 00    	jg     804cbab <tn+0x458>
 804caaf:	c7 44 24 08 0a 00 00 	movl   $0xa,0x8(%esp)
 804cab6:	00 
 804cab7:	8d 85 90 fe ff ff    	lea    -0x170(%ebp),%eax
 804cabd:	89 44 24 04          	mov    %eax,0x4(%esp)
 804cac1:	8b 85 a0 fe ff ff    	mov    -0x160(%ebp),%eax
 804cac7:	89 04 24             	mov    %eax,(%esp)
 804caca:	e8 51 cc ff ff       	call   8049720 <strtoll@plt>
 804cacf:	89 85 b8 fe ff ff    	mov    %eax,-0x148(%ebp)
 804cad5:	89 95 bc fe ff ff    	mov    %edx,-0x144(%ebp)
 804cadb:	e8 10 ce ff ff       	call   80498f0 <__errno_location@plt>
 804cae0:	8b 00                	mov    (%eax),%eax
 804cae2:	83 f8 22             	cmp    $0x22,%eax
 804cae5:	75 31                	jne    804cb18 <tn+0x3c5>
 804cae7:	8b 85 bc fe ff ff    	mov    -0x144(%ebp),%eax
 804caed:	35 ff ff ff 7f       	xor    $0x7fffffff,%eax
 804caf2:	89 c2                	mov    %eax,%edx
 804caf4:	8b 85 b8 fe ff ff    	mov    -0x148(%ebp),%eax
 804cafa:	83 f0 ff             	xor    $0xffffffff,%eax
 804cafd:	09 d0                	or     %edx,%eax
 804caff:	85 c0                	test   %eax,%eax
 804cb01:	74 5b                	je     804cb5e <tn+0x40b>
 804cb03:	8b 85 bc fe ff ff    	mov    -0x144(%ebp),%eax
 804cb09:	35 00 00 00 80       	xor    $0x80000000,%eax
 804cb0e:	0b 85 b8 fe ff ff    	or     -0x148(%ebp),%eax
 804cb14:	85 c0                	test   %eax,%eax
 804cb16:	74 46                	je     804cb5e <tn+0x40b>
 804cb18:	8b 85 90 fe ff ff    	mov    -0x170(%ebp),%eax
 804cb1e:	0f b6 00             	movzbl (%eax),%eax
 804cb21:	84 c0                	test   %al,%al
 804cb23:	75 59                	jne    804cb7e <tn+0x42b>
 804cb25:	83 bd bc fe ff ff 00 	cmpl   $0x0,-0x144(%ebp)
 804cb2c:	78 30                	js     804cb5e <tn+0x40b>
 804cb2e:	83 bd bc fe ff ff 00 	cmpl   $0x0,-0x144(%ebp)
 804cb35:	7f 09                	jg     804cb40 <tn+0x3ed>
 804cb37:	83 bd b8 fe ff ff 00 	cmpl   $0x0,-0x148(%ebp)
 804cb3e:	76 1e                	jbe    804cb5e <tn+0x40b>
 804cb40:	83 bd bc fe ff ff 00 	cmpl   $0x0,-0x144(%ebp)
 804cb47:	78 35                	js     804cb7e <tn+0x42b>
 804cb49:	83 bd bc fe ff ff 00 	cmpl   $0x0,-0x144(%ebp)
 804cb50:	7f 0c                	jg     804cb5e <tn+0x40b>
 804cb52:	81 bd b8 fe ff ff ff 	cmpl   $0xffff,-0x148(%ebp)
 804cb59:	ff 00 00 
 804cb5c:	76 20                	jbe    804cb7e <tn+0x42b>
 804cb5e:	8b 85 a0 fe ff ff    	mov    -0x160(%ebp),%eax
 804cb64:	89 44 24 04          	mov    %eax,0x4(%esp)
 804cb68:	c7 04 24 0c d1 05 08 	movl   $0x805d10c,(%esp)
 804cb6f:	e8 fc c9 ff ff       	call   8049570 <printf@plt>
 804cb74:	b8 00 00 00 00       	mov    $0x0,%eax
 804cb79:	e9 b9 04 00 00       	jmp    804d037 <tn+0x8e4>
 804cb7e:	8b 85 90 fe ff ff    	mov    -0x170(%ebp),%eax
 804cb84:	0f b6 00             	movzbl (%eax),%eax
 804cb87:	84 c0                	test   %al,%al
 804cb89:	74 20                	je     804cbab <tn+0x458>
 804cb8b:	8b 85 a0 fe ff ff    	mov    -0x160(%ebp),%eax
 804cb91:	89 44 24 04          	mov    %eax,0x4(%esp)
 804cb95:	c7 04 24 2d d1 05 08 	movl   $0x805d12d,(%esp)
 804cb9c:	e8 cf c9 ff ff       	call   8049570 <printf@plt>
 804cba1:	b8 00 00 00 00       	mov    $0x0,%eax
 804cba6:	e9 8c 04 00 00       	jmp    804d037 <tn+0x8e4>
 804cbab:	a1 00 45 06 08       	mov    0x8064500,%eax
 804cbb0:	89 04 24             	mov    %eax,(%esp)
 804cbb3:	e8 28 ca ff ff       	call   80495e0 <free@plt>
 804cbb8:	8b 85 9c fe ff ff    	mov    -0x164(%ebp),%eax
 804cbbe:	89 04 24             	mov    %eax,(%esp)
 804cbc1:	e8 5a cc ff ff       	call   8049820 <strlen@plt>
 804cbc6:	83 c0 01             	add    $0x1,%eax
 804cbc9:	89 04 24             	mov    %eax,(%esp)
 804cbcc:	e8 bf cb ff ff       	call   8049790 <malloc@plt>
 804cbd1:	a3 00 45 06 08       	mov    %eax,0x8064500
 804cbd6:	a1 00 45 06 08       	mov    0x8064500,%eax
 804cbdb:	85 c0                	test   %eax,%eax
 804cbdd:	74 6c                	je     804cc4b <tn+0x4f8>
 804cbdf:	a1 00 45 06 08       	mov    0x8064500,%eax
 804cbe4:	8b 95 9c fe ff ff    	mov    -0x164(%ebp),%edx
 804cbea:	89 54 24 04          	mov    %edx,0x4(%esp)
 804cbee:	89 04 24             	mov    %eax,(%esp)
 804cbf1:	e8 3a cb ff ff       	call   8049730 <strcpy@plt>
 804cbf6:	c7 85 cc fe ff ff 01 	movl   $0x1,-0x134(%ebp)
 804cbfd:	00 00 00 
 804cc00:	c7 85 c4 fe ff ff 40 	movl   $0x40,-0x13c(%ebp)
 804cc07:	00 00 00 
 804cc0a:	8d 85 90 fe ff ff    	lea    -0x170(%ebp),%eax
 804cc10:	89 44 24 0c          	mov    %eax,0xc(%esp)
 804cc14:	8d 85 c4 fe ff ff    	lea    -0x13c(%ebp),%eax
 804cc1a:	89 44 24 08          	mov    %eax,0x8(%esp)
 804cc1e:	8b 85 a0 fe ff ff    	mov    -0x160(%ebp),%eax
 804cc24:	89 44 24 04          	mov    %eax,0x4(%esp)
 804cc28:	8b 85 9c fe ff ff    	mov    -0x164(%ebp),%eax
 804cc2e:	89 04 24             	mov    %eax,(%esp)
 804cc31:	e8 4a ce ff ff       	call   8049a80 <getaddrinfo@plt>
 804cc36:	89 85 98 fe ff ff    	mov    %eax,-0x168(%ebp)
 804cc3c:	83 bd 98 fe ff ff 00 	cmpl   $0x0,-0x168(%ebp)
 804cc43:	0f 84 80 00 00 00    	je     804ccc9 <tn+0x576>
 804cc49:	eb 16                	jmp    804cc61 <tn+0x50e>
 804cc4b:	c7 04 24 48 d1 05 08 	movl   $0x805d148,(%esp)
 804cc52:	e8 49 cb ff ff       	call   80497a0 <puts@plt>
 804cc57:	b8 00 00 00 00       	mov    $0x0,%eax
 804cc5c:	e9 d6 03 00 00       	jmp    804d037 <tn+0x8e4>
 804cc61:	83 bd 98 fe ff ff f5 	cmpl   $0xfffffff5,-0x168(%ebp)
 804cc68:	75 17                	jne    804cc81 <tn+0x52e>
 804cc6a:	e8 81 cc ff ff       	call   80498f0 <__errno_location@plt>
 804cc6f:	8b 00                	mov    (%eax),%eax
 804cc71:	89 04 24             	mov    %eax,(%esp)
 804cc74:	e8 37 cb ff ff       	call   80497b0 <strerror@plt>
 804cc79:	89 85 a8 fe ff ff    	mov    %eax,-0x158(%ebp)
 804cc7f:	eb 14                	jmp    804cc95 <tn+0x542>
 804cc81:	8b 85 98 fe ff ff    	mov    -0x168(%ebp),%eax
 804cc87:	89 04 24             	mov    %eax,(%esp)
 804cc8a:	e8 b1 cc ff ff       	call   8049940 <gai_strerror@plt>
 804cc8f:	89 85 a8 fe ff ff    	mov    %eax,-0x158(%ebp)
 804cc95:	8b 85 a8 fe ff ff    	mov    -0x158(%ebp),%eax
 804cc9b:	89 44 24 0c          	mov    %eax,0xc(%esp)
 804cc9f:	8b 85 a0 fe ff ff    	mov    -0x160(%ebp),%eax
 804cca5:	89 44 24 08          	mov    %eax,0x8(%esp)
 804cca9:	8b 85 9c fe ff ff    	mov    -0x164(%ebp),%eax
 804ccaf:	89 44 24 04          	mov    %eax,0x4(%esp)
 804ccb3:	c7 04 24 70 d1 05 08 	movl   $0x805d170,(%esp)
 804ccba:	e8 b1 c8 ff ff       	call   8049570 <printf@plt>
 804ccbf:	b8 00 00 00 00       	mov    $0x0,%eax
 804ccc4:	e9 6e 03 00 00       	jmp    804d037 <tn+0x8e4>
 804ccc9:	8b 85 90 fe ff ff    	mov    -0x170(%ebp),%eax
 804cccf:	89 85 94 fe ff ff    	mov    %eax,-0x16c(%ebp)
 804ccd5:	8b 85 94 fe ff ff    	mov    -0x16c(%ebp),%eax
 804ccdb:	8b 50 10             	mov    0x10(%eax),%edx
 804ccde:	8b 85 94 fe ff ff    	mov    -0x16c(%ebp),%eax
 804cce4:	8b 40 14             	mov    0x14(%eax),%eax
 804cce7:	c7 44 24 18 01 00 00 	movl   $0x1,0x18(%esp)
 804ccee:	00 
 804ccef:	c7 44 24 14 00 00 00 	movl   $0x0,0x14(%esp)
 804ccf6:	00 
 804ccf7:	c7 44 24 10 00 00 00 	movl   $0x0,0x10(%esp)
 804ccfe:	00 
 804ccff:	c7 44 24 0c 00 01 00 	movl   $0x100,0xc(%esp)
 804cd06:	00 
 804cd07:	8d 8d e4 fe ff ff    	lea    -0x11c(%ebp),%ecx
 804cd0d:	89 4c 24 08          	mov    %ecx,0x8(%esp)
 804cd11:	89 54 24 04          	mov    %edx,0x4(%esp)
 804cd15:	89 04 24             	mov    %eax,(%esp)
 804cd18:	e8 83 c9 ff ff       	call   80496a0 <getnameinfo@plt>
 804cd1d:	89 85 98 fe ff ff    	mov    %eax,-0x168(%ebp)
 804cd23:	83 bd 98 fe ff ff 00 	cmpl   $0x0,-0x168(%ebp)
 804cd2a:	74 54                	je     804cd80 <tn+0x62d>
 804cd2c:	83 bd 98 fe ff ff f5 	cmpl   $0xfffffff5,-0x168(%ebp)
 804cd33:	75 17                	jne    804cd4c <tn+0x5f9>
 804cd35:	e8 b6 cb ff ff       	call   80498f0 <__errno_location@plt>
 804cd3a:	8b 00                	mov    (%eax),%eax
 804cd3c:	89 04 24             	mov    %eax,(%esp)
 804cd3f:	e8 6c ca ff ff       	call   80497b0 <strerror@plt>
 804cd44:	89 85 ac fe ff ff    	mov    %eax,-0x154(%ebp)
 804cd4a:	eb 14                	jmp    804cd60 <tn+0x60d>
 804cd4c:	8b 85 98 fe ff ff    	mov    -0x168(%ebp),%eax
 804cd52:	89 04 24             	mov    %eax,(%esp)
 804cd55:	e8 e6 cb ff ff       	call   8049940 <gai_strerror@plt>
 804cd5a:	89 85 ac fe ff ff    	mov    %eax,-0x154(%ebp)
 804cd60:	8b 85 ac fe ff ff    	mov    -0x154(%ebp),%eax
 804cd66:	89 44 24 04          	mov    %eax,0x4(%esp)
 804cd6a:	c7 04 24 93 d1 05 08 	movl   $0x805d193,(%esp)
 804cd71:	e8 fa c7 ff ff       	call   8049570 <printf@plt>
 804cd76:	b8 00 00 00 00       	mov    $0x0,%eax
 804cd7b:	e9 b7 02 00 00       	jmp    804d037 <tn+0x8e4>
 804cd80:	8d 85 e4 fe ff ff    	lea    -0x11c(%ebp),%eax
 804cd86:	89 44 24 04          	mov    %eax,0x4(%esp)
 804cd8a:	c7 04 24 aa d1 05 08 	movl   $0x805d1aa,(%esp)
 804cd91:	e8 da c7 ff ff       	call   8049570 <printf@plt>
 804cd96:	8b 85 94 fe ff ff    	mov    -0x16c(%ebp),%eax
 804cd9c:	8b 40 04             	mov    0x4(%eax),%eax
 804cd9f:	c7 44 24 08 00 00 00 	movl   $0x0,0x8(%esp)
 804cda6:	00 
 804cda7:	c7 44 24 04 01 00 00 	movl   $0x1,0x4(%esp)
 804cdae:	00 
 804cdaf:	89 04 24             	mov    %eax,(%esp)
 804cdb2:	e8 b9 cc ff ff       	call   8049a70 <socket@plt>
 804cdb7:	a3 04 b7 06 08       	mov    %eax,0x806b704
 804cdbc:	a1 04 b7 06 08       	mov    0x806b704,%eax
 804cdc1:	85 c0                	test   %eax,%eax
 804cdc3:	79 16                	jns    804cddb <tn+0x688>
 804cdc5:	c7 04 24 b8 d1 05 08 	movl   $0x805d1b8,(%esp)
 804cdcc:	e8 2f c9 ff ff       	call   8049700 <perror@plt>
 804cdd1:	b8 00 00 00 00       	mov    $0x0,%eax
 804cdd6:	e9 5c 02 00 00       	jmp    804d037 <tn+0x8e4>
 804cddb:	a1 08 52 06 08       	mov    0x8065208,%eax
 804cde0:	85 c0                	test   %eax,%eax
 804cde2:	74 4a                	je     804ce2e <tn+0x6db>
 804cde4:	a1 04 b7 06 08       	mov    0x806b704,%eax
 804cde9:	c7 44 24 10 04 00 00 	movl   $0x4,0x10(%esp)
 804cdf0:	00 
 804cdf1:	8d 95 8c fe ff ff    	lea    -0x174(%ebp),%edx
 804cdf7:	89 54 24 0c          	mov    %edx,0xc(%esp)
 804cdfb:	c7 44 24 08 01 00 00 	movl   $0x1,0x8(%esp)
 804ce02:	00 
 804ce03:	c7 44 24 04 01 00 00 	movl   $0x1,0x4(%esp)
 804ce0a:	00 
 804ce0b:	89 04 24             	mov    %eax,(%esp)
 804ce0e:	e8 ed c6 ff ff       	call   8049500 <setsockopt@plt>
 804ce13:	89 85 98 fe ff ff    	mov    %eax,-0x168(%ebp)
 804ce19:	83 bd 98 fe ff ff 00 	cmpl   $0x0,-0x168(%ebp)
 804ce20:	79 0c                	jns    804ce2e <tn+0x6db>
 804ce22:	c7 04 24 6f ba 05 08 	movl   $0x805ba6f,(%esp)
 804ce29:	e8 d2 c8 ff ff       	call   8049700 <perror@plt>
 804ce2e:	8b 85 94 fe ff ff    	mov    -0x16c(%ebp),%eax
 804ce34:	8b 48 10             	mov    0x10(%eax),%ecx
 804ce37:	8b 85 94 fe ff ff    	mov    -0x16c(%ebp),%eax
 804ce3d:	8b 40 14             	mov    0x14(%eax),%eax
 804ce40:	89 c2                	mov    %eax,%edx
 804ce42:	a1 04 b7 06 08       	mov    0x806b704,%eax
 804ce47:	89 4c 24 08          	mov    %ecx,0x8(%esp)
 804ce4b:	89 54 24 04          	mov    %edx,0x4(%esp)
 804ce4f:	89 04 24             	mov    %eax,(%esp)
 804ce52:	e8 c9 cc ff ff       	call   8049b20 <connect@plt>
 804ce57:	89 85 98 fe ff ff    	mov    %eax,-0x168(%ebp)
 804ce5d:	83 bd 98 fe ff ff 00 	cmpl   $0x0,-0x168(%ebp)
 804ce64:	79 4d                	jns    804ceb3 <tn+0x760>
 804ce66:	8b 85 94 fe ff ff    	mov    -0x16c(%ebp),%eax
 804ce6c:	8b 40 1c             	mov    0x1c(%eax),%eax
 804ce6f:	85 c0                	test   %eax,%eax
 804ce71:	74 2a                	je     804ce9d <tn+0x74a>
 804ce73:	c7 04 24 c7 d1 05 08 	movl   $0x805d1c7,(%esp)
 804ce7a:	e8 81 c8 ff ff       	call   8049700 <perror@plt>
 804ce7f:	8b 85 94 fe ff ff    	mov    -0x16c(%ebp),%eax
 804ce85:	8b 40 1c             	mov    0x1c(%eax),%eax
 804ce88:	89 85 94 fe ff ff    	mov    %eax,-0x16c(%ebp)
 804ce8e:	a1 04 b7 06 08       	mov    0x806b704,%eax
 804ce93:	89 04 24             	mov    %eax,(%esp)
 804ce96:	e8 a5 cc ff ff       	call   8049b40 <close@plt>
 804ce9b:	eb 23                	jmp    804cec0 <tn+0x76d>
 804ce9d:	c7 04 24 dc d1 05 08 	movl   $0x805d1dc,(%esp)
 804cea4:	e8 57 c8 ff ff       	call   8049700 <perror@plt>
 804cea9:	b8 00 00 00 00       	mov    $0x0,%eax
 804ceae:	e9 84 01 00 00       	jmp    804d037 <tn+0x8e4>
 804ceb3:	a1 c4 b7 06 08       	mov    0x806b7c4,%eax
 804ceb8:	83 c0 01             	add    $0x1,%eax
 804cebb:	a3 c4 b7 06 08       	mov    %eax,0x806b7c4
 804cec0:	a1 c4 b7 06 08       	mov    0x806b7c4,%eax
 804cec5:	85 c0                	test   %eax,%eax
 804cec7:	0f 84 08 fe ff ff    	je     804ccd5 <tn+0x582>
 804cecd:	8b 85 90 fe ff ff    	mov    -0x170(%ebp),%eax
 804ced3:	89 04 24             	mov    %eax,(%esp)
 804ced6:	e8 15 cb ff ff       	call   80499f0 <freeaddrinfo@plt>
 804cedb:	a1 00 45 06 08       	mov    0x8064500,%eax
 804cee0:	89 44 24 04          	mov    %eax,0x4(%esp)
 804cee4:	8b 85 9c fe ff ff    	mov    -0x164(%ebp),%eax
 804ceea:	89 04 24             	mov    %eax,(%esp)
 804ceed:	e8 04 05 00 00       	call   804d3f6 <cmdrc>
 804cef2:	a1 10 52 06 08       	mov    0x8065210,%eax
 804cef7:	85 c0                	test   %eax,%eax
 804cef9:	0f 84 8d 00 00 00    	je     804cf8c <tn+0x839>
 804ceff:	83 bd a4 fe ff ff 00 	cmpl   $0x0,-0x15c(%ebp)
 804cf06:	0f 85 80 00 00 00    	jne    804cf8c <tn+0x839>
 804cf0c:	c7 04 24 f5 ce 05 08 	movl   $0x805cef5,(%esp)
 804cf13:	e8 58 c8 ff ff       	call   8049770 <getenv@plt>
 804cf18:	89 85 a4 fe ff ff    	mov    %eax,-0x15c(%ebp)
 804cf1e:	83 bd a4 fe ff ff 00 	cmpl   $0x0,-0x15c(%ebp)
 804cf25:	74 2f                	je     804cf56 <tn+0x803>
 804cf27:	8b 85 a4 fe ff ff    	mov    -0x15c(%ebp),%eax
 804cf2d:	89 04 24             	mov    %eax,(%esp)
 804cf30:	e8 eb c5 ff ff       	call   8049520 <getpwnam@plt>
 804cf35:	89 85 b4 fe ff ff    	mov    %eax,-0x14c(%ebp)
 804cf3b:	83 bd b4 fe ff ff 00 	cmpl   $0x0,-0x14c(%ebp)
 804cf42:	74 48                	je     804cf8c <tn+0x839>
 804cf44:	8b 85 b4 fe ff ff    	mov    -0x14c(%ebp),%eax
 804cf4a:	8b 58 08             	mov    0x8(%eax),%ebx
 804cf4d:	e8 2e c7 ff ff       	call   8049680 <getuid@plt>
 804cf52:	39 c3                	cmp    %eax,%ebx
 804cf54:	74 36                	je     804cf8c <tn+0x839>
 804cf56:	e8 25 c7 ff ff       	call   8049680 <getuid@plt>
 804cf5b:	89 04 24             	mov    %eax,(%esp)
 804cf5e:	e8 fd c5 ff ff       	call   8049560 <getpwuid@plt>
 804cf63:	89 85 b4 fe ff ff    	mov    %eax,-0x14c(%ebp)
 804cf69:	83 bd b4 fe ff ff 00 	cmpl   $0x0,-0x14c(%ebp)
 804cf70:	74 10                	je     804cf82 <tn+0x82f>
 804cf72:	8b 85 b4 fe ff ff    	mov    -0x14c(%ebp),%eax
 804cf78:	8b 00                	mov    (%eax),%eax
 804cf7a:	89 85 a4 fe ff ff    	mov    %eax,-0x15c(%ebp)
 804cf80:	eb 0a                	jmp    804cf8c <tn+0x839>
 804cf82:	c7 85 a4 fe ff ff 00 	movl   $0x0,-0x15c(%ebp)
 804cf89:	00 00 00 
 804cf8c:	83 bd a4 fe ff ff 00 	cmpl   $0x0,-0x15c(%ebp)
 804cf93:	74 22                	je     804cfb7 <tn+0x864>
 804cf95:	8b 85 a4 fe ff ff    	mov    -0x15c(%ebp),%eax
 804cf9b:	89 44 24 04          	mov    %eax,0x4(%esp)
 804cf9f:	c7 04 24 f5 ce 05 08 	movl   $0x805cef5,(%esp)
 804cfa6:	e8 62 f3 ff ff       	call   804c30d <env_define>
 804cfab:	c7 04 24 f5 ce 05 08 	movl   $0x805cef5,(%esp)
 804cfb2:	e8 3d f4 ff ff       	call   804c3f4 <env_export>
 804cfb7:	c7 44 24 0c 00 00 00 	movl   $0x0,0xc(%esp)
 804cfbe:	00 
 804cfbf:	c7 44 24 08 8b cf 05 	movl   $0x805cf8b,0x8(%esp)
 804cfc6:	08 
 804cfc7:	c7 44 24 04 05 d2 05 	movl   $0x805d205,0x4(%esp)
 804cfce:	08 
 804cfcf:	c7 04 24 9d c5 04 08 	movl   $0x804c59d,(%esp)
 804cfd6:	e8 78 00 00 00       	call   804d053 <call>
 804cfdb:	c7 85 98 fe ff ff 00 	movl   $0x0,-0x168(%ebp)
 804cfe2:	00 00 00 
 804cfe5:	c7 04 24 a0 b9 06 08 	movl   $0x806b9a0,(%esp)
 804cfec:	e8 df c5 ff ff       	call   80495d0 <_setjmp@plt>
 804cff1:	85 c0                	test   %eax,%eax
 804cff3:	75 10                	jne    804d005 <tn+0x8b2>
 804cff5:	8b 85 a4 fe ff ff    	mov    -0x15c(%ebp),%eax
 804cffb:	89 04 24             	mov    %eax,(%esp)
 804cffe:	e8 cd 57 00 00       	call   80527d0 <telnet>
 804d003:	eb 0a                	jmp    804d00f <tn+0x8bc>
 804d005:	c7 85 98 fe ff ff 01 	movl   $0x1,-0x168(%ebp)
 804d00c:	00 00 00 
 804d00f:	a1 04 b7 06 08       	mov    0x806b704,%eax
 804d014:	89 04 24             	mov    %eax,(%esp)
 804d017:	e8 24 cb ff ff       	call   8049b40 <close@plt>
 804d01c:	8b 85 98 fe ff ff    	mov    -0x168(%ebp),%eax
 804d022:	89 44 24 04          	mov    %eax,0x4(%esp)
 804d026:	c7 04 24 0c d2 05 08 	movl   $0x805d20c,(%esp)
 804d02d:	e8 be 7b 00 00       	call   8054bf0 <ExitString>
 804d032:	b8 00 00 00 00       	mov    $0x0,%eax
 804d037:	8b 7d e4             	mov    -0x1c(%ebp),%edi
 804d03a:	65 33 3d 14 00 00 00 	xor    %gs:0x14,%edi
 804d041:	74 05                	je     804d048 <tn+0x8f5>
 804d043:	e8 28 c6 ff ff       	call   8049670 <__stack_chk_fail@plt>
 804d048:	81 c4 8c 01 00 00    	add    $0x18c,%esp
 804d04e:	5b                   	pop    %ebx
 804d04f:	5e                   	pop    %esi
 804d050:	5f                   	pop    %edi
 804d051:	5d                   	pop    %ebp
 804d052:	c3                   	ret    

0804d053 <call>:
 804d053:	55                   	push   %ebp
 804d054:	89 e5                	mov    %esp,%ebp
 804d056:	81 ec b8 01 00 00    	sub    $0x1b8,%esp
 804d05c:	c7 85 64 fe ff ff 00 	movl   $0x0,-0x19c(%ebp)
 804d063:	00 00 00 
 804d066:	8d 45 0c             	lea    0xc(%ebp),%eax
 804d069:	89 85 60 fe ff ff    	mov    %eax,-0x1a0(%ebp)
 804d06f:	90                   	nop
 804d070:	8b 85 64 fe ff ff    	mov    -0x19c(%ebp),%eax
 804d076:	8d 50 01             	lea    0x1(%eax),%edx
 804d079:	89 95 64 fe ff ff    	mov    %edx,-0x19c(%ebp)
 804d07f:	8b 95 60 fe ff ff    	mov    -0x1a0(%ebp),%edx
 804d085:	8d 4a 04             	lea    0x4(%edx),%ecx
 804d088:	89 8d 60 fe ff ff    	mov    %ecx,-0x1a0(%ebp)
 804d08e:	8b 12                	mov    (%edx),%edx
 804d090:	89 94 85 68 fe ff ff 	mov    %edx,-0x198(%ebp,%eax,4)
 804d097:	8b 84 85 68 fe ff ff 	mov    -0x198(%ebp,%eax,4),%eax
 804d09e:	85 c0                	test   %eax,%eax
 804d0a0:	75 ce                	jne    804d070 <call+0x1d>
 804d0a2:	8b 85 64 fe ff ff    	mov    -0x19c(%ebp),%eax
 804d0a8:	8d 50 ff             	lea    -0x1(%eax),%edx
 804d0ab:	8d 85 68 fe ff ff    	lea    -0x198(%ebp),%eax
 804d0b1:	89 44 24 04          	mov    %eax,0x4(%esp)
 804d0b5:	89 14 24             	mov    %edx,(%esp)
 804d0b8:	8b 45 08             	mov    0x8(%ebp),%eax
 804d0bb:	ff d0                	call   *%eax
 804d0bd:	c9                   	leave  
 804d0be:	c3                   	ret    

0804d0bf <getcmd>:
 804d0bf:	55                   	push   %ebp
 804d0c0:	89 e5                	mov    %esp,%ebp
 804d0c2:	83 ec 28             	sub    $0x28,%esp
 804d0c5:	c7 44 24 08 10 00 00 	movl   $0x10,0x8(%esp)
 804d0cc:	00 
 804d0cd:	c7 44 24 04 40 3d 06 	movl   $0x8063d40,0x4(%esp)
 804d0d4:	08 
 804d0d5:	8b 45 08             	mov    0x8(%ebp),%eax
 804d0d8:	89 04 24             	mov    %eax,(%esp)
 804d0db:	e8 30 7c 00 00       	call   8054d10 <genget>
 804d0e0:	89 45 f4             	mov    %eax,-0xc(%ebp)
 804d0e3:	83 7d f4 00          	cmpl   $0x0,-0xc(%ebp)
 804d0e7:	74 05                	je     804d0ee <getcmd+0x2f>
 804d0e9:	8b 45 f4             	mov    -0xc(%ebp),%eax
 804d0ec:	eb 1b                	jmp    804d109 <getcmd+0x4a>
 804d0ee:	c7 44 24 08 10 00 00 	movl   $0x10,0x8(%esp)
 804d0f5:	00 
 804d0f6:	c7 44 24 04 e0 3e 06 	movl   $0x8063ee0,0x4(%esp)
 804d0fd:	08 
 804d0fe:	8b 45 08             	mov    0x8(%ebp),%eax
 804d101:	89 04 24             	mov    %eax,(%esp)
 804d104:	e8 07 7c 00 00       	call   8054d10 <genget>
 804d109:	c9                   	leave  
 804d10a:	c3                   	ret    

0804d10b <command>:
 804d10b:	55                   	push   %ebp
 804d10c:	89 e5                	mov    %esp,%ebp
 804d10e:	53                   	push   %ebx
 804d10f:	83 ec 14             	sub    $0x14,%esp
 804d112:	e8 99 5a 00 00       	call   8052bb0 <setcommandmode>
 804d117:	83 7d 08 00          	cmpl   $0x0,0x8(%ebp)
 804d11b:	75 0e                	jne    804d12b <command+0x20>
 804d11d:	c7 04 24 0a 00 00 00 	movl   $0xa,(%esp)
 804d124:	e8 b7 c7 ff ff       	call   80498e0 <putchar@plt>
 804d129:	eb 28                	jmp    804d153 <command+0x48>
 804d12b:	c7 44 24 04 00 00 00 	movl   $0x0,0x4(%esp)
 804d132:	00 
 804d133:	c7 04 24 02 00 00 00 	movl   $0x2,(%esp)
 804d13a:	e8 01 c5 ff ff       	call   8049640 <signal@plt>
 804d13f:	c7 44 24 04 00 00 00 	movl   $0x0,0x4(%esp)
 804d146:	00 
 804d147:	c7 04 24 03 00 00 00 	movl   $0x3,(%esp)
 804d14e:	e8 ed c4 ff ff       	call   8049640 <signal@plt>
 804d153:	0f b6 05 74 b9 06 08 	movzbl 0x806b974,%eax
 804d15a:	84 c0                	test   %al,%al
 804d15c:	75 15                	jne    804d173 <command+0x68>
 804d15e:	a1 00 52 06 08       	mov    0x8065200,%eax
 804d163:	89 44 24 04          	mov    %eax,0x4(%esp)
 804d167:	c7 04 24 6e d2 05 08 	movl   $0x805d26e,(%esp)
 804d16e:	e8 fd c3 ff ff       	call   8049570 <printf@plt>
 804d173:	83 7d 0c 00          	cmpl   $0x0,0xc(%ebp)
 804d177:	74 6d                	je     804d1e6 <command+0xdb>
 804d179:	bb 60 45 06 08       	mov    $0x8064560,%ebx
 804d17e:	eb 04                	jmp    804d184 <command+0x79>
 804d180:	83 6d 10 01          	subl   $0x1,0x10(%ebp)
 804d184:	83 7d 10 00          	cmpl   $0x0,0x10(%ebp)
 804d188:	7e 1a                	jle    804d1a4 <command+0x99>
 804d18a:	89 d8                	mov    %ebx,%eax
 804d18c:	8d 58 01             	lea    0x1(%eax),%ebx
 804d18f:	8b 55 0c             	mov    0xc(%ebp),%edx
 804d192:	8d 4a 01             	lea    0x1(%edx),%ecx
 804d195:	89 4d 0c             	mov    %ecx,0xc(%ebp)
 804d198:	0f b6 12             	movzbl (%edx),%edx
 804d19b:	88 10                	mov    %dl,(%eax)
 804d19d:	0f b6 00             	movzbl (%eax),%eax
 804d1a0:	3c 0a                	cmp    $0xa,%al
 804d1a2:	75 dc                	jne    804d180 <command+0x75>
 804d1a4:	c7 45 0c 00 00 00 00 	movl   $0x0,0xc(%ebp)
 804d1ab:	81 fb 60 45 06 08    	cmp    $0x8064560,%ebx
 804d1b1:	74 33                	je     804d1e6 <command+0xdb>
 804d1b3:	83 eb 01             	sub    $0x1,%ebx
 804d1b6:	0f b6 03             	movzbl (%ebx),%eax
 804d1b9:	3c 0a                	cmp    $0xa,%al
 804d1bb:	75 29                	jne    804d1e6 <command+0xdb>
 804d1bd:	81 fb 60 45 06 08    	cmp    $0x8064560,%ebx
 804d1c3:	74 21                	je     804d1e6 <command+0xdb>
 804d1c5:	c6 03 00             	movb   $0x0,(%ebx)
 804d1c8:	0f b6 05 74 b9 06 08 	movzbl 0x806b974,%eax
 804d1cf:	84 c0                	test   %al,%al
 804d1d1:	75 11                	jne    804d1e4 <command+0xd9>
 804d1d3:	c7 04 24 60 45 06 08 	movl   $0x8064560,(%esp)
 804d1da:	e8 c1 c5 ff ff       	call   80497a0 <puts@plt>
 804d1df:	e9 80 00 00 00       	jmp    804d264 <command+0x159>
 804d1e4:	eb 7e                	jmp    804d264 <command+0x159>
 804d1e6:	0f b6 05 74 b9 06 08 	movzbl 0x806b974,%eax
 804d1ed:	84 c0                	test   %al,%al
 804d1ef:	74 15                	je     804d206 <command+0xfb>
 804d1f1:	a1 00 52 06 08       	mov    0x8065200,%eax
 804d1f6:	89 44 24 04          	mov    %eax,0x4(%esp)
 804d1fa:	c7 04 24 6e d2 05 08 	movl   $0x805d26e,(%esp)
 804d201:	e8 6a c3 ff ff       	call   8049570 <printf@plt>
 804d206:	a1 c4 44 06 08       	mov    0x80644c4,%eax
 804d20b:	89 44 24 08          	mov    %eax,0x8(%esp)
 804d20f:	c7 44 24 04 00 01 00 	movl   $0x100,0x4(%esp)
 804d216:	00 
 804d217:	c7 04 24 60 45 06 08 	movl   $0x8064560,(%esp)
 804d21e:	e8 fd c3 ff ff       	call   8049620 <fgets@plt>
 804d223:	85 c0                	test   %eax,%eax
 804d225:	75 3d                	jne    804d264 <command+0x159>
 804d227:	a1 c4 44 06 08       	mov    0x80644c4,%eax
 804d22c:	89 04 24             	mov    %eax,(%esp)
 804d22f:	e8 bc c5 ff ff       	call   80497f0 <feof@plt>
 804d234:	85 c0                	test   %eax,%eax
 804d236:	75 11                	jne    804d249 <command+0x13e>
 804d238:	a1 c4 44 06 08       	mov    0x80644c4,%eax
 804d23d:	89 04 24             	mov    %eax,(%esp)
 804d240:	e8 cb c3 ff ff       	call   8049610 <ferror@plt>
 804d245:	85 c0                	test   %eax,%eax
 804d247:	74 16                	je     804d25f <command+0x154>
 804d249:	c7 04 24 0a 00 00 00 	movl   $0xa,(%esp)
 804d250:	e8 8b c6 ff ff       	call   80498e0 <putchar@plt>
 804d255:	e8 6f eb ff ff       	call   804bdc9 <quit>
 804d25a:	e9 9f 00 00 00       	jmp    804d2fe <command+0x1f3>
 804d25f:	e9 9a 00 00 00       	jmp    804d2fe <command+0x1f3>
 804d264:	0f b6 05 60 45 06 08 	movzbl 0x8064560,%eax
 804d26b:	84 c0                	test   %al,%al
 804d26d:	75 05                	jne    804d274 <command+0x169>
 804d26f:	e9 8a 00 00 00       	jmp    804d2fe <command+0x1f3>
 804d274:	e8 64 cc ff ff       	call   8049edd <makeargv>
 804d279:	a1 80 47 06 08       	mov    0x8064780,%eax
 804d27e:	85 c0                	test   %eax,%eax
 804d280:	75 02                	jne    804d284 <command+0x179>
 804d282:	eb 7a                	jmp    804d2fe <command+0x1f3>
 804d284:	a1 80 47 06 08       	mov    0x8064780,%eax
 804d289:	89 04 24             	mov    %eax,(%esp)
 804d28c:	e8 2e fe ff ff       	call   804d0bf <getcmd>
 804d291:	89 c3                	mov    %eax,%ebx
 804d293:	89 1c 24             	mov    %ebx,(%esp)
 804d296:	e8 f5 7a 00 00       	call   8054d90 <Ambiguous>
 804d29b:	85 c0                	test   %eax,%eax
 804d29d:	74 0e                	je     804d2ad <command+0x1a2>
 804d29f:	c7 04 24 73 d2 05 08 	movl   $0x805d273,(%esp)
 804d2a6:	e8 f5 c4 ff ff       	call   80497a0 <puts@plt>
 804d2ab:	eb 4c                	jmp    804d2f9 <command+0x1ee>
 804d2ad:	85 db                	test   %ebx,%ebx
 804d2af:	75 0e                	jne    804d2bf <command+0x1b4>
 804d2b1:	c7 04 24 86 d2 05 08 	movl   $0x805d286,(%esp)
 804d2b8:	e8 e3 c4 ff ff       	call   80497a0 <puts@plt>
 804d2bd:	eb 3a                	jmp    804d2f9 <command+0x1ee>
 804d2bf:	8b 43 0c             	mov    0xc(%ebx),%eax
 804d2c2:	85 c0                	test   %eax,%eax
 804d2c4:	74 17                	je     804d2dd <command+0x1d2>
 804d2c6:	a1 c4 b7 06 08       	mov    0x806b7c4,%eax
 804d2cb:	85 c0                	test   %eax,%eax
 804d2cd:	75 0e                	jne    804d2dd <command+0x1d2>
 804d2cf:	c7 04 24 6d b8 05 08 	movl   $0x805b86d,(%esp)
 804d2d6:	e8 c5 c4 ff ff       	call   80497a0 <puts@plt>
 804d2db:	eb 1c                	jmp    804d2f9 <command+0x1ee>
 804d2dd:	8b 43 08             	mov    0x8(%ebx),%eax
 804d2e0:	8b 15 60 47 06 08    	mov    0x8064760,%edx
 804d2e6:	c7 44 24 04 80 47 06 	movl   $0x8064780,0x4(%esp)
 804d2ed:	08 
 804d2ee:	89 14 24             	mov    %edx,(%esp)
 804d2f1:	ff d0                	call   *%eax
 804d2f3:	85 c0                	test   %eax,%eax
 804d2f5:	74 02                	je     804d2f9 <command+0x1ee>
 804d2f7:	eb 05                	jmp    804d2fe <command+0x1f3>
 804d2f9:	e9 55 fe ff ff       	jmp    804d153 <command+0x48>
 804d2fe:	83 7d 08 00          	cmpl   $0x0,0x8(%ebp)
 804d302:	75 29                	jne    804d32d <command+0x222>
 804d304:	a1 c4 b7 06 08       	mov    0x806b7c4,%eax
 804d309:	85 c0                	test   %eax,%eax
 804d30b:	75 14                	jne    804d321 <command+0x216>
 804d30d:	c7 44 24 04 01 00 00 	movl   $0x1,0x4(%esp)
 804d314:	00 
 804d315:	c7 04 24 e0 b7 06 08 	movl   $0x806b7e0,(%esp)
 804d31c:	e8 5f c2 ff ff       	call   8049580 <longjmp@plt>
 804d321:	c7 04 24 00 00 00 00 	movl   $0x0,(%esp)
 804d328:	e8 53 58 00 00       	call   8052b80 <setconnmode>
 804d32d:	83 c4 14             	add    $0x14,%esp
 804d330:	5b                   	pop    %ebx
 804d331:	5d                   	pop    %ebp
 804d332:	c3                   	ret    

0804d333 <help>:
 804d333:	55                   	push   %ebp
 804d334:	89 e5                	mov    %esp,%ebp
 804d336:	56                   	push   %esi
 804d337:	53                   	push   %ebx
 804d338:	83 ec 10             	sub    $0x10,%esp
 804d33b:	83 7d 08 01          	cmpl   $0x1,0x8(%ebp)
 804d33f:	75 4b                	jne    804d38c <help+0x59>
 804d341:	c7 04 24 98 d2 05 08 	movl   $0x805d298,(%esp)
 804d348:	e8 53 c4 ff ff       	call   80497a0 <puts@plt>
 804d34d:	bb 40 3d 06 08       	mov    $0x8063d40,%ebx
 804d352:	eb 2b                	jmp    804d37f <help+0x4c>
 804d354:	8b 43 04             	mov    0x4(%ebx),%eax
 804d357:	85 c0                	test   %eax,%eax
 804d359:	74 21                	je     804d37c <help+0x49>
 804d35b:	8b 53 04             	mov    0x4(%ebx),%edx
 804d35e:	8b 03                	mov    (%ebx),%eax
 804d360:	89 54 24 0c          	mov    %edx,0xc(%esp)
 804d364:	89 44 24 08          	mov    %eax,0x8(%esp)
 804d368:	c7 44 24 04 08 00 00 	movl   $0x8,0x4(%esp)
 804d36f:	00 
 804d370:	c7 04 24 c5 d2 05 08 	movl   $0x805d2c5,(%esp)
 804d377:	e8 f4 c1 ff ff       	call   8049570 <printf@plt>
 804d37c:	83 c3 10             	add    $0x10,%ebx
 804d37f:	8b 03                	mov    (%ebx),%eax
 804d381:	85 c0                	test   %eax,%eax
 804d383:	75 cf                	jne    804d354 <help+0x21>
 804d385:	b8 00 00 00 00       	mov    $0x0,%eax
 804d38a:	eb 63                	jmp    804d3ef <help+0xbc>
 804d38c:	eb 52                	jmp    804d3e0 <help+0xad>
 804d38e:	83 45 0c 04          	addl   $0x4,0xc(%ebp)
 804d392:	8b 45 0c             	mov    0xc(%ebp),%eax
 804d395:	8b 30                	mov    (%eax),%esi
 804d397:	89 34 24             	mov    %esi,(%esp)
 804d39a:	e8 20 fd ff ff       	call   804d0bf <getcmd>
 804d39f:	89 c3                	mov    %eax,%ebx
 804d3a1:	89 1c 24             	mov    %ebx,(%esp)
 804d3a4:	e8 e7 79 00 00       	call   8054d90 <Ambiguous>
 804d3a9:	85 c0                	test   %eax,%eax
 804d3ab:	74 12                	je     804d3bf <help+0x8c>
 804d3ad:	89 74 24 04          	mov    %esi,0x4(%esp)
 804d3b1:	c7 04 24 ce d2 05 08 	movl   $0x805d2ce,(%esp)
 804d3b8:	e8 b3 c1 ff ff       	call   8049570 <printf@plt>
 804d3bd:	eb 21                	jmp    804d3e0 <help+0xad>
 804d3bf:	85 db                	test   %ebx,%ebx
 804d3c1:	75 12                	jne    804d3d5 <help+0xa2>
 804d3c3:	89 74 24 04          	mov    %esi,0x4(%esp)
 804d3c7:	c7 04 24 ea d2 05 08 	movl   $0x805d2ea,(%esp)
 804d3ce:	e8 9d c1 ff ff       	call   8049570 <printf@plt>
 804d3d3:	eb 0b                	jmp    804d3e0 <help+0xad>
 804d3d5:	8b 43 04             	mov    0x4(%ebx),%eax
 804d3d8:	89 04 24             	mov    %eax,(%esp)
 804d3db:	e8 c0 c3 ff ff       	call   80497a0 <puts@plt>
 804d3e0:	83 6d 08 01          	subl   $0x1,0x8(%ebp)
 804d3e4:	83 7d 08 00          	cmpl   $0x0,0x8(%ebp)
 804d3e8:	7f a4                	jg     804d38e <help+0x5b>
 804d3ea:	b8 00 00 00 00       	mov    $0x0,%eax
 804d3ef:	83 c4 10             	add    $0x10,%esp
 804d3f2:	5b                   	pop    %ebx
 804d3f3:	5e                   	pop    %esi
 804d3f4:	5d                   	pop    %ebp
 804d3f5:	c3                   	ret    

0804d3f6 <cmdrc>:
 804d3f6:	55                   	push   %ebp
 804d3f7:	89 e5                	mov    %esp,%ebp
 804d3f9:	53                   	push   %ebx
 804d3fa:	83 ec 34             	sub    $0x34,%esp
 804d3fd:	c7 45 e4 00 00 00 00 	movl   $0x0,-0x1c(%ebp)
 804d404:	8b 45 08             	mov    0x8(%ebp),%eax
 804d407:	89 04 24             	mov    %eax,(%esp)
 804d40a:	e8 11 c4 ff ff       	call   8049820 <strlen@plt>
 804d40f:	89 45 e8             	mov    %eax,-0x18(%ebp)
 804d412:	8b 45 0c             	mov    0xc(%ebp),%eax
 804d415:	89 04 24             	mov    %eax,(%esp)
 804d418:	e8 03 c4 ff ff       	call   8049820 <strlen@plt>
 804d41d:	89 45 ec             	mov    %eax,-0x14(%ebp)
 804d420:	a1 0c 52 06 08       	mov    0x806520c,%eax
 804d425:	89 44 24 04          	mov    %eax,0x4(%esp)
 804d429:	c7 04 24 04 d3 05 08 	movl   $0x805d304,(%esp)
 804d430:	e8 3b c1 ff ff       	call   8049570 <printf@plt>
 804d435:	a1 0c 52 06 08       	mov    0x806520c,%eax
 804d43a:	85 c0                	test   %eax,%eax
 804d43c:	74 05                	je     804d443 <cmdrc+0x4d>
 804d43e:	e9 f9 02 00 00       	jmp    804d73c <cmdrc+0x346>
 804d443:	a1 d0 47 06 08       	mov    0x80647d0,%eax
 804d448:	85 c0                	test   %eax,%eax
 804d44a:	75 53                	jne    804d49f <cmdrc+0xa9>
 804d44c:	c7 04 24 1b d3 05 08 	movl   $0x805d31b,(%esp)
 804d453:	e8 18 c3 ff ff       	call   8049770 <getenv@plt>
 804d458:	89 45 f0             	mov    %eax,-0x10(%ebp)
 804d45b:	8b 45 f0             	mov    -0x10(%ebp),%eax
 804d45e:	89 44 24 04          	mov    %eax,0x4(%esp)
 804d462:	c7 04 24 20 d3 05 08 	movl   $0x805d320,(%esp)
 804d469:	e8 02 c1 ff ff       	call   8049570 <printf@plt>
 804d46e:	83 7d f0 00          	cmpl   $0x0,-0x10(%ebp)
 804d472:	74 1a                	je     804d48e <cmdrc+0x98>
 804d474:	8b 45 f0             	mov    -0x10(%ebp),%eax
 804d477:	89 44 24 04          	mov    %eax,0x4(%esp)
 804d47b:	c7 04 24 29 d3 05 08 	movl   $0x805d329,(%esp)
 804d482:	e8 d9 95 00 00       	call   8056a60 <xasprintf>
 804d487:	a3 d0 47 06 08       	mov    %eax,0x80647d0
 804d48c:	eb 11                	jmp    804d49f <cmdrc+0xa9>
 804d48e:	c7 04 24 36 d3 05 08 	movl   $0x805d336,(%esp)
 804d495:	e8 66 95 00 00       	call   8056a00 <xstrdup>
 804d49a:	a3 d0 47 06 08       	mov    %eax,0x80647d0
 804d49f:	a1 d0 47 06 08       	mov    0x80647d0,%eax
 804d4a4:	c7 44 24 04 41 d3 05 	movl   $0x805d341,0x4(%esp)
 804d4ab:	08 
 804d4ac:	89 04 24             	mov    %eax,(%esp)
 804d4af:	e8 3c c2 ff ff       	call   80496f0 <fopen64@plt>
 804d4b4:	89 45 f4             	mov    %eax,-0xc(%ebp)
 804d4b7:	83 7d f4 00          	cmpl   $0x0,-0xc(%ebp)
 804d4bb:	75 05                	jne    804d4c2 <cmdrc+0xcc>
 804d4bd:	e9 7a 02 00 00       	jmp    804d73c <cmdrc+0x346>
 804d4c2:	a1 d0 47 06 08       	mov    0x80647d0,%eax
 804d4c7:	89 44 24 04          	mov    %eax,0x4(%esp)
 804d4cb:	c7 04 24 43 d3 05 08 	movl   $0x805d343,(%esp)
 804d4d2:	e8 99 c0 ff ff       	call   8049570 <printf@plt>
 804d4d7:	c7 04 24 55 d3 05 08 	movl   $0x805d355,(%esp)
 804d4de:	e8 bd c2 ff ff       	call   80497a0 <puts@plt>
 804d4e3:	8b 45 f4             	mov    -0xc(%ebp),%eax
 804d4e6:	89 44 24 08          	mov    %eax,0x8(%esp)
 804d4ea:	c7 44 24 04 00 01 00 	movl   $0x100,0x4(%esp)
 804d4f1:	00 
 804d4f2:	c7 04 24 60 45 06 08 	movl   $0x8064560,(%esp)
 804d4f9:	e8 22 c1 ff ff       	call   8049620 <fgets@plt>
 804d4fe:	85 c0                	test   %eax,%eax
 804d500:	75 05                	jne    804d507 <cmdrc+0x111>
 804d502:	e9 2a 02 00 00       	jmp    804d731 <cmdrc+0x33b>
 804d507:	0f b6 05 60 45 06 08 	movzbl 0x8064560,%eax
 804d50e:	84 c0                	test   %al,%al
 804d510:	75 05                	jne    804d517 <cmdrc+0x121>
 804d512:	e9 1a 02 00 00       	jmp    804d731 <cmdrc+0x33b>
 804d517:	0f b6 05 60 45 06 08 	movzbl 0x8064560,%eax
 804d51e:	3c 23                	cmp    $0x23,%al
 804d520:	75 05                	jne    804d527 <cmdrc+0x131>
 804d522:	e9 05 02 00 00       	jmp    804d72c <cmdrc+0x336>
 804d527:	83 7d e4 00          	cmpl   $0x0,-0x1c(%ebp)
 804d52b:	74 2b                	je     804d558 <cmdrc+0x162>
 804d52d:	e8 3e c6 ff ff       	call   8049b70 <__ctype_b_loc@plt>
 804d532:	8b 00                	mov    (%eax),%eax
 804d534:	0f b6 15 60 45 06 08 	movzbl 0x8064560,%edx
 804d53b:	0f be d2             	movsbl %dl,%edx
 804d53e:	01 d2                	add    %edx,%edx
 804d540:	01 d0                	add    %edx,%eax
 804d542:	0f b7 00             	movzwl (%eax),%eax
 804d545:	0f b7 c0             	movzwl %ax,%eax
 804d548:	25 00 20 00 00       	and    $0x2000,%eax
 804d54d:	85 c0                	test   %eax,%eax
 804d54f:	75 07                	jne    804d558 <cmdrc+0x162>
 804d551:	c7 45 e4 00 00 00 00 	movl   $0x0,-0x1c(%ebp)
 804d558:	83 7d e4 00          	cmpl   $0x0,-0x1c(%ebp)
 804d55c:	0f 85 28 01 00 00    	jne    804d68a <cmdrc+0x294>
 804d562:	e8 09 c6 ff ff       	call   8049b70 <__ctype_b_loc@plt>
 804d567:	8b 00                	mov    (%eax),%eax
 804d569:	0f b6 15 60 45 06 08 	movzbl 0x8064560,%edx
 804d570:	0f be d2             	movsbl %dl,%edx
 804d573:	01 d2                	add    %edx,%edx
 804d575:	01 d0                	add    %edx,%eax
 804d577:	0f b7 00             	movzwl (%eax),%eax
 804d57a:	0f b7 c0             	movzwl %ax,%eax
 804d57d:	25 00 20 00 00       	and    $0x2000,%eax
 804d582:	85 c0                	test   %eax,%eax
 804d584:	74 05                	je     804d58b <cmdrc+0x195>
 804d586:	e9 a1 01 00 00       	jmp    804d72c <cmdrc+0x336>
 804d58b:	8b 45 e8             	mov    -0x18(%ebp),%eax
 804d58e:	89 44 24 08          	mov    %eax,0x8(%esp)
 804d592:	8b 45 08             	mov    0x8(%ebp),%eax
 804d595:	89 44 24 04          	mov    %eax,0x4(%esp)
 804d599:	c7 04 24 60 45 06 08 	movl   $0x8064560,(%esp)
 804d5a0:	e8 cb c3 ff ff       	call   8049970 <strncasecmp@plt>
 804d5a5:	85 c0                	test   %eax,%eax
 804d5a7:	75 2b                	jne    804d5d4 <cmdrc+0x1de>
 804d5a9:	8b 45 e8             	mov    -0x18(%ebp),%eax
 804d5ac:	ba 00 01 00 00       	mov    $0x100,%edx
 804d5b1:	29 c2                	sub    %eax,%edx
 804d5b3:	8b 45 e8             	mov    -0x18(%ebp),%eax
 804d5b6:	05 60 45 06 08       	add    $0x8064560,%eax
 804d5bb:	89 54 24 08          	mov    %edx,0x8(%esp)
 804d5bf:	89 44 24 04          	mov    %eax,0x4(%esp)
 804d5c3:	c7 04 24 60 45 06 08 	movl   $0x8064560,(%esp)
 804d5ca:	e8 41 c3 ff ff       	call   8049910 <strncpy@plt>
 804d5cf:	e9 89 00 00 00       	jmp    804d65d <cmdrc+0x267>
 804d5d4:	8b 45 ec             	mov    -0x14(%ebp),%eax
 804d5d7:	89 44 24 08          	mov    %eax,0x8(%esp)
 804d5db:	8b 45 0c             	mov    0xc(%ebp),%eax
 804d5de:	89 44 24 04          	mov    %eax,0x4(%esp)
 804d5e2:	c7 04 24 60 45 06 08 	movl   $0x8064560,(%esp)
 804d5e9:	e8 82 c3 ff ff       	call   8049970 <strncasecmp@plt>
 804d5ee:	85 c0                	test   %eax,%eax
 804d5f0:	75 28                	jne    804d61a <cmdrc+0x224>
 804d5f2:	8b 45 ec             	mov    -0x14(%ebp),%eax
 804d5f5:	ba 00 01 00 00       	mov    $0x100,%edx
 804d5fa:	29 c2                	sub    %eax,%edx
 804d5fc:	8b 45 ec             	mov    -0x14(%ebp),%eax
 804d5ff:	05 60 45 06 08       	add    $0x8064560,%eax
 804d604:	89 54 24 08          	mov    %edx,0x8(%esp)
 804d608:	89 44 24 04          	mov    %eax,0x4(%esp)
 804d60c:	c7 04 24 60 45 06 08 	movl   $0x8064560,(%esp)
 804d613:	e8 f8 c2 ff ff       	call   8049910 <strncpy@plt>
 804d618:	eb 43                	jmp    804d65d <cmdrc+0x267>
 804d61a:	c7 44 24 08 07 00 00 	movl   $0x7,0x8(%esp)
 804d621:	00 
 804d622:	c7 44 24 04 72 d3 05 	movl   $0x805d372,0x4(%esp)
 804d629:	08 
 804d62a:	c7 04 24 60 45 06 08 	movl   $0x8064560,(%esp)
 804d631:	e8 3a c3 ff ff       	call   8049970 <strncasecmp@plt>
 804d636:	85 c0                	test   %eax,%eax
 804d638:	75 1e                	jne    804d658 <cmdrc+0x262>
 804d63a:	c7 44 24 08 f9 00 00 	movl   $0xf9,0x8(%esp)
 804d641:	00 
 804d642:	c7 44 24 04 67 45 06 	movl   $0x8064567,0x4(%esp)
 804d649:	08 
 804d64a:	c7 04 24 60 45 06 08 	movl   $0x8064560,(%esp)
 804d651:	e8 ba c2 ff ff       	call   8049910 <strncpy@plt>
 804d656:	eb 05                	jmp    804d65d <cmdrc+0x267>
 804d658:	e9 cf 00 00 00       	jmp    804d72c <cmdrc+0x336>
 804d65d:	0f b6 05 60 45 06 08 	movzbl 0x8064560,%eax
 804d664:	3c 20                	cmp    $0x20,%al
 804d666:	74 1b                	je     804d683 <cmdrc+0x28d>
 804d668:	0f b6 05 60 45 06 08 	movzbl 0x8064560,%eax
 804d66f:	3c 09                	cmp    $0x9,%al
 804d671:	74 10                	je     804d683 <cmdrc+0x28d>
 804d673:	0f b6 05 60 45 06 08 	movzbl 0x8064560,%eax
 804d67a:	3c 0a                	cmp    $0xa,%al
 804d67c:	74 05                	je     804d683 <cmdrc+0x28d>
 804d67e:	e9 a9 00 00 00       	jmp    804d72c <cmdrc+0x336>
 804d683:	c7 45 e4 01 00 00 00 	movl   $0x1,-0x1c(%ebp)
 804d68a:	e8 4e c8 ff ff       	call   8049edd <makeargv>
 804d68f:	a1 80 47 06 08       	mov    0x8064780,%eax
 804d694:	85 c0                	test   %eax,%eax
 804d696:	75 05                	jne    804d69d <cmdrc+0x2a7>
 804d698:	e9 8f 00 00 00       	jmp    804d72c <cmdrc+0x336>
 804d69d:	a1 80 47 06 08       	mov    0x8064780,%eax
 804d6a2:	89 04 24             	mov    %eax,(%esp)
 804d6a5:	e8 15 fa ff ff       	call   804d0bf <getcmd>
 804d6aa:	89 c3                	mov    %eax,%ebx
 804d6ac:	89 1c 24             	mov    %ebx,(%esp)
 804d6af:	e8 dc 76 00 00       	call   8054d90 <Ambiguous>
 804d6b4:	85 c0                	test   %eax,%eax
 804d6b6:	74 17                	je     804d6cf <cmdrc+0x2d9>
 804d6b8:	a1 80 47 06 08       	mov    0x8064780,%eax
 804d6bd:	89 44 24 04          	mov    %eax,0x4(%esp)
 804d6c1:	c7 04 24 7a d3 05 08 	movl   $0x805d37a,(%esp)
 804d6c8:	e8 a3 be ff ff       	call   8049570 <printf@plt>
 804d6cd:	eb 5d                	jmp    804d72c <cmdrc+0x336>
 804d6cf:	85 db                	test   %ebx,%ebx
 804d6d1:	75 17                	jne    804d6ea <cmdrc+0x2f4>
 804d6d3:	a1 80 47 06 08       	mov    0x8064780,%eax
 804d6d8:	89 44 24 04          	mov    %eax,0x4(%esp)
 804d6dc:	c7 04 24 92 d3 05 08 	movl   $0x805d392,(%esp)
 804d6e3:	e8 88 be ff ff       	call   8049570 <printf@plt>
 804d6e8:	eb 42                	jmp    804d72c <cmdrc+0x336>
 804d6ea:	8b 43 0c             	mov    0xc(%ebx),%eax
 804d6ed:	85 c0                	test   %eax,%eax
 804d6ef:	74 20                	je     804d711 <cmdrc+0x31b>
 804d6f1:	a1 c4 b7 06 08       	mov    0x806b7c4,%eax
 804d6f6:	85 c0                	test   %eax,%eax
 804d6f8:	75 17                	jne    804d711 <cmdrc+0x31b>
 804d6fa:	a1 80 47 06 08       	mov    0x8064780,%eax
 804d6ff:	89 44 24 04          	mov    %eax,0x4(%esp)
 804d703:	c7 04 24 a8 d3 05 08 	movl   $0x805d3a8,(%esp)
 804d70a:	e8 61 be ff ff       	call   8049570 <printf@plt>
 804d70f:	eb 1b                	jmp    804d72c <cmdrc+0x336>
 804d711:	8b 43 08             	mov    0x8(%ebx),%eax
 804d714:	8b 15 60 47 06 08    	mov    0x8064760,%edx
 804d71a:	c7 44 24 04 80 47 06 	movl   $0x8064780,0x4(%esp)
 804d721:	08 
 804d722:	89 14 24             	mov    %edx,(%esp)
 804d725:	ff d0                	call   *%eax
 804d727:	e9 ab fd ff ff       	jmp    804d4d7 <cmdrc+0xe1>
 804d72c:	e9 a6 fd ff ff       	jmp    804d4d7 <cmdrc+0xe1>
 804d731:	8b 45 f4             	mov    -0xc(%ebp),%eax
 804d734:	89 04 24             	mov    %eax,(%esp)
 804d737:	e8 f4 be ff ff       	call   8049630 <fclose@plt>
 804d73c:	83 c4 34             	add    $0x34,%esp
 804d73f:	5b                   	pop    %ebx
 804d740:	5d                   	pop    %ebp
 804d741:	c3                   	ret    
 804d742:	66 90                	xchg   %ax,%ax
 804d744:	66 90                	xchg   %ax,%ax
 804d746:	66 90                	xchg   %ax,%ax
 804d748:	66 90                	xchg   %ax,%ax
 804d74a:	66 90                	xchg   %ax,%ax
 804d74c:	66 90                	xchg   %ax,%ax
 804d74e:	66 90                	xchg   %ax,%ax

0804d750 <parse_opt>:
 804d750:	83 ec 1c             	sub    $0x1c,%esp
 804d753:	8b 44 24 20          	mov    0x20(%esp),%eax
 804d757:	83 e8 34             	sub    $0x34,%eax
 804d75a:	83 f8 3e             	cmp    $0x3e,%eax
 804d75d:	0f 87 05 01 00 00    	ja     804d868 <parse_opt+0x118>
 804d763:	ff 24 85 e0 d3 05 08 	jmp    *0x805d3e0(,%eax,4)
 804d76a:	8d b6 00 00 00 00    	lea    0x0(%esi),%esi
 804d770:	31 c0                	xor    %eax,%eax
 804d772:	8d b6 00 00 00 00    	lea    0x0(%esi),%esi
 804d778:	83 c4 1c             	add    $0x1c,%esp
 804d77b:	c3                   	ret    
 804d77c:	8d 74 26 00          	lea    0x0(%esi,%eiz,1),%esi
 804d780:	83 0d 14 52 06 08 02 	orl    $0x2,0x8065214
 804d787:	31 c0                	xor    %eax,%eax
 804d789:	eb ed                	jmp    804d778 <parse_opt+0x28>
 804d78b:	90                   	nop
 804d78c:	8d 74 26 00          	lea    0x0(%esi,%eiz,1),%esi
 804d790:	c7 05 10 52 06 08 01 	movl   $0x1,0x8065210
 804d797:	00 00 00 
 804d79a:	31 c0                	xor    %eax,%eax
 804d79c:	eb da                	jmp    804d778 <parse_opt+0x28>
 804d79e:	66 90                	xchg   %ax,%ax
 804d7a0:	c7 05 0c 52 06 08 01 	movl   $0x1,0x806520c
 804d7a7:	00 00 00 
 804d7aa:	31 c0                	xor    %eax,%eax
 804d7ac:	eb ca                	jmp    804d778 <parse_opt+0x28>
 804d7ae:	66 90                	xchg   %ax,%ax
 804d7b0:	c7 05 08 52 06 08 01 	movl   $0x1,0x8065208
 804d7b7:	00 00 00 
 804d7ba:	31 c0                	xor    %eax,%eax
 804d7bc:	eb ba                	jmp    804d778 <parse_opt+0x28>
 804d7be:	66 90                	xchg   %ax,%ax
 804d7c0:	8b 44 24 24          	mov    0x24(%esp),%eax
 804d7c4:	89 04 24             	mov    %eax,(%esp)
 804d7c7:	e8 92 d5 ff ff       	call   804ad5e <set_escape_char>
 804d7cc:	31 c0                	xor    %eax,%eax
 804d7ce:	eb a8                	jmp    804d778 <parse_opt+0x28>
 804d7d0:	8b 44 24 24          	mov    0x24(%esp),%eax
 804d7d4:	c7 05 10 52 06 08 01 	movl   $0x1,0x8065210
 804d7db:	00 00 00 
 804d7de:	a3 a4 56 06 08       	mov    %eax,0x80656a4
 804d7e3:	31 c0                	xor    %eax,%eax
 804d7e5:	eb 91                	jmp    804d778 <parse_opt+0x28>
 804d7e7:	90                   	nop
 804d7e8:	8b 44 24 24          	mov    0x24(%esp),%eax
 804d7ec:	89 04 24             	mov    %eax,(%esp)
 804d7ef:	e8 7c 54 00 00       	call   8052c70 <SetNetTrace>
 804d7f4:	31 c0                	xor    %eax,%eax
 804d7f6:	eb 80                	jmp    804d778 <parse_opt+0x28>
 804d7f8:	c6 05 74 b9 06 08 7e 	movb   $0x7e,0x806b974
 804d7ff:	31 c0                	xor    %eax,%eax
 804d801:	e9 72 ff ff ff       	jmp    804d778 <parse_opt+0x28>
 804d806:	66 90                	xchg   %ax,%ax
 804d808:	c7 05 e0 47 06 08 04 	movl   $0x4,0x80647e0
 804d80f:	00 00 00 
 804d812:	31 c0                	xor    %eax,%eax
 804d814:	e9 5f ff ff ff       	jmp    804d778 <parse_opt+0x28>
 804d819:	8d b4 26 00 00 00 00 	lea    0x0(%esi,%eiz,1),%esi
 804d820:	c7 05 e0 47 06 08 06 	movl   $0x6,0x80647e0
 804d827:	00 00 00 
 804d82a:	31 c0                	xor    %eax,%eax
 804d82c:	e9 47 ff ff ff       	jmp    804d778 <parse_opt+0x28>
 804d831:	8d b4 26 00 00 00 00 	lea    0x0(%esi,%eiz,1),%esi
 804d838:	c7 05 14 52 06 08 03 	movl   $0x3,0x8065214
 804d83f:	00 00 00 
 804d842:	31 c0                	xor    %eax,%eax
 804d844:	e9 2f ff ff ff       	jmp    804d778 <parse_opt+0x28>
 804d849:	8d b4 26 00 00 00 00 	lea    0x0(%esi,%eiz,1),%esi
 804d850:	c6 05 70 ba 06 08 00 	movb   $0x0,0x806ba70
 804d857:	31 c0                	xor    %eax,%eax
 804d859:	c6 05 74 b9 06 08 00 	movb   $0x0,0x806b974
 804d860:	e9 13 ff ff ff       	jmp    804d778 <parse_opt+0x28>
 804d865:	8d 76 00             	lea    0x0(%esi),%esi
 804d868:	b8 07 00 00 00       	mov    $0x7,%eax
 804d86d:	e9 06 ff ff ff       	jmp    804d778 <parse_opt+0x28>
 804d872:	8d b4 26 00 00 00 00 	lea    0x0(%esi,%eiz,1),%esi
 804d879:	8d bc 27 00 00 00 00 	lea    0x0(%edi,%eiz,1),%edi

0804d880 <tninit>:
 804d880:	83 ec 0c             	sub    $0xc,%esp
 804d883:	e8 d8 50 00 00       	call   8052960 <init_terminal>
 804d888:	e8 13 00 00 00       	call   804d8a0 <init_network>
 804d88d:	e8 be 1a 00 00       	call   804f350 <init_telnet>
 804d892:	83 c4 0c             	add    $0xc,%esp
 804d895:	e9 6c 06 00 00       	jmp    804df06 <init_sys>
 804d89a:	66 90                	xchg   %ax,%ax
 804d89c:	66 90                	xchg   %ax,%ax
 804d89e:	66 90                	xchg   %ax,%ax

0804d8a0 <init_network>:
 804d8a0:	83 ec 1c             	sub    $0x1c,%esp
 804d8a3:	c7 44 24 08 00 40 00 	movl   $0x4000,0x8(%esp)
 804d8aa:	00 
 804d8ab:	c7 44 24 04 e0 56 06 	movl   $0x80656e0,0x4(%esp)
 804d8b2:	08 
 804d8b3:	c7 04 24 c0 56 06 08 	movl   $0x80656c0,(%esp)
 804d8ba:	e8 81 02 00 00       	call   804db40 <ring_init>
 804d8bf:	83 f8 01             	cmp    $0x1,%eax
 804d8c2:	75 2f                	jne    804d8f3 <init_network+0x53>
 804d8c4:	c7 44 24 08 00 20 00 	movl   $0x2000,0x8(%esp)
 804d8cb:	00 
 804d8cc:	c7 44 24 04 00 97 06 	movl   $0x8069700,0x4(%esp)
 804d8d3:	08 
 804d8d4:	c7 04 24 e0 96 06 08 	movl   $0x80696e0,(%esp)
 804d8db:	e8 60 02 00 00       	call   804db40 <ring_init>
 804d8e0:	83 f8 01             	cmp    $0x1,%eax
 804d8e3:	75 0e                	jne    804d8f3 <init_network+0x53>
